Component: ARM Compiler 5.06 update 4 (build 422) Tool: armlink [4d35d2]

==============================================================================

Section Cross References

    hello_world_core0.o(i.MAILBOX_IRQHandler) refers to fsl_common.o(i.__aeabi_assert) for __aeabi_assert
    hello_world_core0.o(i.MAILBOX_IRQHandler) refers to dfixi.o(.text) for __aeabi_d2iz
    hello_world_core0.o(i.MAILBOX_IRQHandler) refers to hello_world_core0.o(i.read_si7020_data) for i.read_si7020_data
    hello_world_core0.o(i.MAILBOX_IRQHandler) refers to hello_world_core0.o(.data) for g_msg
    hello_world_core0.o(i.MAILBOX_IRQHandler) refers to app_si70xx.o(.bss) for si7020_data
    hello_world_core0.o(i.MAILBOX_IRQHandler) refers to app_si70xx.o(.data) for sensor
    hello_world_core0.o(i.main) refers to fsl_clock.o(i.CLOCK_AttachClk) for CLOCK_AttachClk
    hello_world_core0.o(i.main) refers to pin_mux.o(i.BOARD_InitPins_Core0) for BOARD_InitPins_Core0
    hello_world_core0.o(i.main) refers to hello_world_core0.o(i.CLOCK_EnableClock) for CLOCK_EnableClock
    hello_world_core0.o(i.main) refers to clock_config.o(i.BOARD_BootClockFROHF48M) for BOARD_BootClockFROHF48M
    hello_world_core0.o(i.main) refers to board.o(i.BOARD_InitDebugConsole) for BOARD_InitDebugConsole
    hello_world_core0.o(i.main) refers to hello_world_core0.o(i.get_core1_image_size) for get_core1_image_size
    hello_world_core0.o(i.main) refers to fsl_debug_console.o(i.DbgConsole_Printf) for DbgConsole_Printf
    hello_world_core0.o(i.main) refers to memmovea.o(.text) for __aeabi_memcpy4
    hello_world_core0.o(i.main) refers to mcmgr.o(i.MCMGR_Init) for MCMGR_Init
    hello_world_core0.o(i.main) refers to mcmgr.o(i.MCMGR_StartCore) for MCMGR_StartCore
    hello_world_core0.o(i.main) refers to app_spiflash.o(i.spiflash_init) for spiflash_init
    hello_world_core0.o(i.main) refers to app_lcd.o(i.bu9796Init) for bu9796Init
    hello_world_core0.o(i.main) refers to app_key.o(i.key_init) for key_init
    hello_world_core0.o(i.main) refers to app_realy.o(i.realy_init) for realy_init
    hello_world_core0.o(i.main) refers to app_beep.o(i.beep_init) for beep_init
    hello_world_core0.o(i.main) refers to app_lcd.o(i.backlight_init) for backlight_init
    hello_world_core0.o(i.main) refers to app_dev_ctrl.o(i.app_init) for app_init
    hello_world_core0.o(i.main) refers to smart_plc.o(i.plc_init) for plc_init
    hello_world_core0.o(i.main) refers to alloter.o(i.init_chn_pool_mgr) for init_chn_pool_mgr
    hello_world_core0.o(i.main) refers to smart_plc.o(i.init_uart_infor) for init_uart_infor
    hello_world_core0.o(i.main) refers to app_dev_ctrl.o(i.dev_init) for dev_init
    hello_world_core0.o(i.main) refers to app_dev_ctrl.o(i.system_init) for system_init
    hello_world_core0.o(i.main) refers to app_dev_ctrl.o(i.task_handle) for task_handle
    hello_world_core0.o(i.main) refers to system_lpc54114_cm4.o(.data) for SystemCoreClock
    hello_world_core0.o(i.read_si7020_data) refers to fsl_debug_console.o(i.DbgConsole_Printf) for DbgConsole_Printf
    hello_world_core0.o(i.read_si7020_data) refers to fsl_common.o(i.__aeabi_assert) for __aeabi_assert
    hello_world_core0.o(i.read_si7020_data) refers to hello_world_core0.o(.bss) for s_message
    hello_world_core0.o(i.read_si7020_data) refers to hello_world_core0.o(.data) for p_message
    hello_world_core0.o(i.read_si7020_data) refers to app_lcd.o(.data) for flash_struct
    startup_lpc54114_cm4.o(RESET) refers to startup_lpc54114_cm4.o(.text) for Reset_Handler
    startup_lpc54114_cm4.o(RESET) refers to app_interrupt.o(i.SysTick_Handler) for SysTick_Handler
    startup_lpc54114_cm4.o(RESET) refers to fsl_sctimer.o(i.SCT0_IRQHandler) for SCT0_IRQHandler
    startup_lpc54114_cm4.o(RESET) refers to smart_plc.o(i.FLEXCOMM5_IRQHandler) for FLEXCOMM5_IRQHandler
    startup_lpc54114_cm4.o(RESET) refers to hello_world_core0.o(i.MAILBOX_IRQHandler) for MAILBOX_IRQHandler
    startup_lpc54114_cm4.o(.text) refers to system_lpc54114_cm4.o(i.SystemInit) for SystemInit
    startup_lpc54114_cm4.o(.text) refers to entry.o(.ARM.Collect$$$$00000000) for __main
    startup_lpc54114_cm4.o(.text) refers to fsl_dma.o(i.DMA0_DriverIRQHandler) for DMA0_DriverIRQHandler
    startup_lpc54114_cm4.o(.text) refers to fsl_pint.o(i.PIN_INT0_DriverIRQHandler) for PIN_INT0_DriverIRQHandler
    startup_lpc54114_cm4.o(.text) refers to fsl_pint.o(i.PIN_INT1_DriverIRQHandler) for PIN_INT1_DriverIRQHandler
    startup_lpc54114_cm4.o(.text) refers to fsl_pint.o(i.PIN_INT2_DriverIRQHandler) for PIN_INT2_DriverIRQHandler
    startup_lpc54114_cm4.o(.text) refers to fsl_pint.o(i.PIN_INT3_DriverIRQHandler) for PIN_INT3_DriverIRQHandler
    startup_lpc54114_cm4.o(.text) refers to fsl_ctimer.o(i.CTIMER0_DriverIRQHandler) for CTIMER0_DriverIRQHandler
    startup_lpc54114_cm4.o(.text) refers to fsl_ctimer.o(i.CTIMER1_DriverIRQHandler) for CTIMER1_DriverIRQHandler
    startup_lpc54114_cm4.o(.text) refers to fsl_ctimer.o(i.CTIMER3_DriverIRQHandler) for CTIMER3_DriverIRQHandler
    startup_lpc54114_cm4.o(.text) refers to fsl_flexcomm.o(i.FLEXCOMM0_DriverIRQHandler) for FLEXCOMM0_DriverIRQHandler
    startup_lpc54114_cm4.o(.text) refers to fsl_flexcomm.o(i.FLEXCOMM1_DriverIRQHandler) for FLEXCOMM1_DriverIRQHandler
    startup_lpc54114_cm4.o(.text) refers to fsl_flexcomm.o(i.FLEXCOMM2_DriverIRQHandler) for FLEXCOMM2_DriverIRQHandler
    startup_lpc54114_cm4.o(.text) refers to fsl_flexcomm.o(i.FLEXCOMM3_DriverIRQHandler) for FLEXCOMM3_DriverIRQHandler
    startup_lpc54114_cm4.o(.text) refers to fsl_flexcomm.o(i.FLEXCOMM4_DriverIRQHandler) for FLEXCOMM4_DriverIRQHandler
    startup_lpc54114_cm4.o(.text) refers to fsl_flexcomm.o(i.FLEXCOMM5_DriverIRQHandler) for FLEXCOMM5_DriverIRQHandler
    startup_lpc54114_cm4.o(.text) refers to fsl_flexcomm.o(i.FLEXCOMM6_DriverIRQHandler) for FLEXCOMM6_DriverIRQHandler
    startup_lpc54114_cm4.o(.text) refers to fsl_flexcomm.o(i.FLEXCOMM7_DriverIRQHandler) for FLEXCOMM7_DriverIRQHandler
    startup_lpc54114_cm4.o(.text) refers to fsl_pint.o(i.PIN_INT4_DriverIRQHandler) for PIN_INT4_DriverIRQHandler
    startup_lpc54114_cm4.o(.text) refers to fsl_pint.o(i.PIN_INT5_DriverIRQHandler) for PIN_INT5_DriverIRQHandler
    startup_lpc54114_cm4.o(.text) refers to fsl_pint.o(i.PIN_INT6_DriverIRQHandler) for PIN_INT6_DriverIRQHandler
    startup_lpc54114_cm4.o(.text) refers to fsl_pint.o(i.PIN_INT7_DriverIRQHandler) for PIN_INT7_DriverIRQHandler
    startup_lpc54114_cm4.o(.text) refers to fsl_ctimer.o(i.CTIMER2_DriverIRQHandler) for CTIMER2_DriverIRQHandler
    startup_lpc54114_cm4.o(.text) refers to fsl_ctimer.o(i.CTIMER4_DriverIRQHandler) for CTIMER4_DriverIRQHandler
    system_lpc54114_cm4.o(i.GetWdtOscFreq) refers to system_lpc54114_cm4.o(.constdata) for wdtFreqLookup
    system_lpc54114_cm4.o(i.SystemCoreClockUpdate) refers to system_lpc54114_cm4.o(i.GetWdtOscFreq) for GetWdtOscFreq
    system_lpc54114_cm4.o(i.SystemCoreClockUpdate) refers to system_lpc54114_cm4.o(i.findPllPreDiv) for findPllPreDiv
    system_lpc54114_cm4.o(i.SystemCoreClockUpdate) refers to system_lpc54114_cm4.o(i.findPllPostDiv) for findPllPostDiv
    system_lpc54114_cm4.o(i.SystemCoreClockUpdate) refers to system_lpc54114_cm4.o(i.findPllMMult) for findPllMMult
    system_lpc54114_cm4.o(i.SystemCoreClockUpdate) refers to uldiv.o(.text) for __aeabi_uldivmod
    system_lpc54114_cm4.o(i.SystemCoreClockUpdate) refers to system_lpc54114_cm4.o(.data) for SystemCoreClock
    system_lpc54114_cm4.o(i.SystemInit) refers to startup_lpc54114_cm4.o(RESET) for __Vectors
    system_lpc54114_cm4.o(i.findPllMMult) refers to system_lpc54114_cm4.o(i.pllDecodeM) for pllDecodeM
    system_lpc54114_cm4.o(i.findPllPostDiv) refers to system_lpc54114_cm4.o(i.pllDecodeP) for pllDecodeP
    system_lpc54114_cm4.o(i.findPllPreDiv) refers to system_lpc54114_cm4.o(i.pllDecodeN) for pllDecodeN
    fsl_usart.o(i.USART_Deinit) refers to fsl_common.o(i.__aeabi_assert) for __aeabi_assert
    fsl_usart.o(i.USART_GetDefaultConfig) refers to fsl_common.o(i.__aeabi_assert) for __aeabi_assert
    fsl_usart.o(i.USART_GetInstance) refers to fsl_common.o(i.__aeabi_assert) for __aeabi_assert
    fsl_usart.o(i.USART_GetInstance) refers to fsl_usart.o(.constdata) for s_usartBaseAddrs
    fsl_usart.o(i.USART_Init) refers to fsl_common.o(i.__aeabi_assert) for __aeabi_assert
    fsl_usart.o(i.USART_Init) refers to fsl_flexcomm.o(i.FLEXCOMM_Init) for FLEXCOMM_Init
    fsl_usart.o(i.USART_Init) refers to fsl_usart.o(i.USART_SetBaudRate) for USART_SetBaudRate
    fsl_usart.o(i.USART_ReadBlocking) refers to fsl_common.o(i.__aeabi_assert) for __aeabi_assert
    fsl_usart.o(i.USART_SetBaudRate) refers to fsl_common.o(i.__aeabi_assert) for __aeabi_assert
    fsl_usart.o(i.USART_TransferAbortReceive) refers to fsl_common.o(i.__aeabi_assert) for __aeabi_assert
    fsl_usart.o(i.USART_TransferAbortSend) refers to fsl_common.o(i.__aeabi_assert) for __aeabi_assert
    fsl_usart.o(i.USART_TransferCreateHandle) refers to fsl_common.o(i.__aeabi_assert) for __aeabi_assert
    fsl_usart.o(i.USART_TransferCreateHandle) refers to fsl_usart.o(i.USART_GetInstance) for USART_GetInstance
    fsl_usart.o(i.USART_TransferCreateHandle) refers to memseta.o(.text) for __aeabi_memclr4
    fsl_usart.o(i.USART_TransferCreateHandle) refers to fsl_flexcomm.o(i.FLEXCOMM_SetIRQHandler) for FLEXCOMM_SetIRQHandler
    fsl_usart.o(i.USART_TransferCreateHandle) refers to fsl_usart.o(i.USART_TransferHandleIRQ) for USART_TransferHandleIRQ
    fsl_usart.o(i.USART_TransferCreateHandle) refers to fsl_usart.o(.constdata) for s_usartIRQ
    fsl_usart.o(i.USART_TransferGetReceiveCount) refers to fsl_common.o(i.__aeabi_assert) for __aeabi_assert
    fsl_usart.o(i.USART_TransferGetRxRingBufferLength) refers to fsl_common.o(i.__aeabi_assert) for __aeabi_assert
    fsl_usart.o(i.USART_TransferGetSendCount) refers to fsl_common.o(i.__aeabi_assert) for __aeabi_assert
    fsl_usart.o(i.USART_TransferHandleIRQ) refers to fsl_common.o(i.__aeabi_assert) for __aeabi_assert
    fsl_usart.o(i.USART_TransferHandleIRQ) refers to fsl_usart.o(i.USART_TransferIsRxRingBufferFull) for USART_TransferIsRxRingBufferFull
    fsl_usart.o(i.USART_TransferIsRxRingBufferFull) refers to fsl_common.o(i.__aeabi_assert) for __aeabi_assert
    fsl_usart.o(i.USART_TransferIsRxRingBufferFull) refers to fsl_usart.o(i.USART_TransferGetRxRingBufferLength) for USART_TransferGetRxRingBufferLength
    fsl_usart.o(i.USART_TransferReceiveNonBlocking) refers to fsl_common.o(i.__aeabi_assert) for __aeabi_assert
    fsl_usart.o(i.USART_TransferReceiveNonBlocking) refers to fsl_usart.o(i.USART_TransferGetRxRingBufferLength) for USART_TransferGetRxRingBufferLength
    fsl_usart.o(i.USART_TransferSendNonBlocking) refers to fsl_common.o(i.__aeabi_assert) for __aeabi_assert
    fsl_usart.o(i.USART_TransferStartRingBuffer) refers to fsl_common.o(i.__aeabi_assert) for __aeabi_assert
    fsl_usart.o(i.USART_TransferStopRingBuffer) refers to fsl_common.o(i.__aeabi_assert) for __aeabi_assert
    fsl_usart.o(i.USART_WriteBlocking) refers to fsl_common.o(i.__aeabi_assert) for __aeabi_assert
    fsl_flexcomm.o(i.FLEXCOMM0_DriverIRQHandler) refers to fsl_common.o(i.__aeabi_assert) for __aeabi_assert
    fsl_flexcomm.o(i.FLEXCOMM0_DriverIRQHandler) refers to fsl_flexcomm.o(.bss) for s_flexcommIrqHandler
    fsl_flexcomm.o(i.FLEXCOMM0_DriverIRQHandler) refers to fsl_flexcomm.o(.constdata) for s_flexcommBaseAddrs
    fsl_flexcomm.o(i.FLEXCOMM1_DriverIRQHandler) refers to fsl_common.o(i.__aeabi_assert) for __aeabi_assert
    fsl_flexcomm.o(i.FLEXCOMM1_DriverIRQHandler) refers to fsl_flexcomm.o(.bss) for s_flexcommIrqHandler
    fsl_flexcomm.o(i.FLEXCOMM1_DriverIRQHandler) refers to fsl_flexcomm.o(.constdata) for s_flexcommBaseAddrs
    fsl_flexcomm.o(i.FLEXCOMM2_DriverIRQHandler) refers to fsl_common.o(i.__aeabi_assert) for __aeabi_assert
    fsl_flexcomm.o(i.FLEXCOMM2_DriverIRQHandler) refers to fsl_flexcomm.o(.bss) for s_flexcommIrqHandler
    fsl_flexcomm.o(i.FLEXCOMM2_DriverIRQHandler) refers to fsl_flexcomm.o(.constdata) for s_flexcommBaseAddrs
    fsl_flexcomm.o(i.FLEXCOMM3_DriverIRQHandler) refers to fsl_common.o(i.__aeabi_assert) for __aeabi_assert
    fsl_flexcomm.o(i.FLEXCOMM3_DriverIRQHandler) refers to fsl_flexcomm.o(.bss) for s_flexcommIrqHandler
    fsl_flexcomm.o(i.FLEXCOMM3_DriverIRQHandler) refers to fsl_flexcomm.o(.constdata) for s_flexcommBaseAddrs
    fsl_flexcomm.o(i.FLEXCOMM4_DriverIRQHandler) refers to fsl_common.o(i.__aeabi_assert) for __aeabi_assert
    fsl_flexcomm.o(i.FLEXCOMM4_DriverIRQHandler) refers to fsl_flexcomm.o(.bss) for s_flexcommIrqHandler
    fsl_flexcomm.o(i.FLEXCOMM4_DriverIRQHandler) refers to fsl_flexcomm.o(.constdata) for s_flexcommBaseAddrs
    fsl_flexcomm.o(i.FLEXCOMM5_DriverIRQHandler) refers to fsl_common.o(i.__aeabi_assert) for __aeabi_assert
    fsl_flexcomm.o(i.FLEXCOMM5_DriverIRQHandler) refers to fsl_flexcomm.o(.bss) for s_flexcommIrqHandler
    fsl_flexcomm.o(i.FLEXCOMM5_DriverIRQHandler) refers to fsl_flexcomm.o(.constdata) for s_flexcommBaseAddrs
    fsl_flexcomm.o(i.FLEXCOMM6_DriverIRQHandler) refers to fsl_common.o(i.__aeabi_assert) for __aeabi_assert
    fsl_flexcomm.o(i.FLEXCOMM6_DriverIRQHandler) refers to fsl_flexcomm.o(.bss) for s_flexcommIrqHandler
    fsl_flexcomm.o(i.FLEXCOMM6_DriverIRQHandler) refers to fsl_flexcomm.o(.constdata) for s_flexcommBaseAddrs
    fsl_flexcomm.o(i.FLEXCOMM7_DriverIRQHandler) refers to fsl_common.o(i.__aeabi_assert) for __aeabi_assert
    fsl_flexcomm.o(i.FLEXCOMM7_DriverIRQHandler) refers to fsl_flexcomm.o(.bss) for s_flexcommIrqHandler
    fsl_flexcomm.o(i.FLEXCOMM7_DriverIRQHandler) refers to fsl_flexcomm.o(.constdata) for s_flexcommBaseAddrs
    fsl_flexcomm.o(i.FLEXCOMM_GetInstance) refers to fsl_common.o(i.__aeabi_assert) for __aeabi_assert
    fsl_flexcomm.o(i.FLEXCOMM_GetInstance) refers to fsl_flexcomm.o(.constdata) for s_flexcommBaseAddrs
    fsl_flexcomm.o(i.FLEXCOMM_Init) refers to fsl_flexcomm.o(i.FLEXCOMM_GetInstance) for FLEXCOMM_GetInstance
    fsl_flexcomm.o(i.FLEXCOMM_Init) refers to fsl_flexcomm.o(i.FLEXCOMM_SetPeriph) for FLEXCOMM_SetPeriph
    fsl_flexcomm.o(i.FLEXCOMM_Init) refers to fsl_flexcomm.o(.constdata) for s_flexcommClocks
    fsl_flexcomm.o(i.FLEXCOMM_SetIRQHandler) refers to fsl_flexcomm.o(i.FLEXCOMM_GetInstance) for FLEXCOMM_GetInstance
    fsl_flexcomm.o(i.FLEXCOMM_SetIRQHandler) refers to fsl_flexcomm.o(.bss) for s_flexcommIrqHandler
    fsl_flexcomm.o(i.FLEXCOMM_SetPeriph) refers to fsl_flexcomm.o(i.FLEXCOMM_PeripheralIsPresent) for FLEXCOMM_PeripheralIsPresent
    fsl_common.o(i.__aeabi_assert) refers to fsl_debug_console.o(i.DbgConsole_Printf) for DbgConsole_Printf
    fsl_clock.o(i.CLOCK_EnableUsbfs0Clock) refers to fsl_clock.o(i.CLOCK_SetClkDiv) for CLOCK_SetClkDiv
    fsl_clock.o(i.CLOCK_EnableUsbfs0Clock) refers to fsl_clock.o(i.CLOCK_AttachClk) for CLOCK_AttachClk
    fsl_clock.o(i.CLOCK_GetAsyncApbClkFreq) refers to fsl_clock.o(i.CLOCK_GetCoreSysClkFreq) for CLOCK_GetCoreSysClkFreq
    fsl_clock.o(i.CLOCK_GetCoreSysClkFreq) refers to fsl_clock.o(i.CLOCK_GetFro12MFreq) for CLOCK_GetFro12MFreq
    fsl_clock.o(i.CLOCK_GetCoreSysClkFreq) refers to fsl_clock.o(i.CLOCK_GetExtClkFreq) for CLOCK_GetExtClkFreq
    fsl_clock.o(i.CLOCK_GetCoreSysClkFreq) refers to fsl_clock.o(i.CLOCK_GetWdtOscFreq) for CLOCK_GetWdtOscFreq
    fsl_clock.o(i.CLOCK_GetCoreSysClkFreq) refers to fsl_clock.o(i.CLOCK_GetFroHfFreq) for CLOCK_GetFroHfFreq
    fsl_clock.o(i.CLOCK_GetCoreSysClkFreq) refers to fsl_clock.o(i.CLOCK_GetPllOutFreq) for CLOCK_GetPllOutFreq
    fsl_clock.o(i.CLOCK_GetCoreSysClkFreq) refers to fsl_clock.o(i.CLOCK_GetOsc32KFreq) for CLOCK_GetOsc32KFreq
    fsl_clock.o(i.CLOCK_GetFRGInputClock) refers to fsl_clock.o(i.CLOCK_GetCoreSysClkFreq) for CLOCK_GetCoreSysClkFreq
    fsl_clock.o(i.CLOCK_GetFRGInputClock) refers to fsl_clock.o(i.CLOCK_GetPllOutFreq) for CLOCK_GetPllOutFreq
    fsl_clock.o(i.CLOCK_GetFRGInputClock) refers to fsl_clock.o(i.CLOCK_GetFro12MFreq) for CLOCK_GetFro12MFreq
    fsl_clock.o(i.CLOCK_GetFRGInputClock) refers to fsl_clock.o(i.CLOCK_GetFroHfFreq) for CLOCK_GetFroHfFreq
    fsl_clock.o(i.CLOCK_GetFlexCommClkFreq) refers to fsl_clock.o(i.CLOCK_GetFro12MFreq) for CLOCK_GetFro12MFreq
    fsl_clock.o(i.CLOCK_GetFlexCommClkFreq) refers to fsl_clock.o(i.CLOCK_GetFroHfFreq) for CLOCK_GetFroHfFreq
    fsl_clock.o(i.CLOCK_GetFlexCommClkFreq) refers to fsl_clock.o(i.CLOCK_GetPllOutFreq) for CLOCK_GetPllOutFreq
    fsl_clock.o(i.CLOCK_GetFlexCommClkFreq) refers to fsl_clock.o(i.CLOCK_GetI2SMClkFreq) for CLOCK_GetI2SMClkFreq
    fsl_clock.o(i.CLOCK_GetFlexCommClkFreq) refers to fsl_clock.o(i.CLOCK_GetFreq) for CLOCK_GetFreq
    fsl_clock.o(i.CLOCK_GetFreq) refers to fsl_clock.o(i.CLOCK_GetCoreSysClkFreq) for CLOCK_GetCoreSysClkFreq
    fsl_clock.o(i.CLOCK_GetFreq) refers to fsl_clock.o(i.CLOCK_GetFroHfFreq) for CLOCK_GetFroHfFreq
    fsl_clock.o(i.CLOCK_GetFreq) refers to fsl_clock.o(i.CLOCK_GetFro12MFreq) for CLOCK_GetFro12MFreq
    fsl_clock.o(i.CLOCK_GetFreq) refers to fsl_clock.o(i.CLOCK_GetPllOutFreq) for CLOCK_GetPllOutFreq
    fsl_clock.o(i.CLOCK_GetFreq) refers to fsl_clock.o(i.CLOCK_GetWdtOscFreq) for CLOCK_GetWdtOscFreq
    fsl_clock.o(i.CLOCK_GetFreq) refers to fsl_clock.o(i.CLOCK_GetFRGInputClock) for CLOCK_GetFRGInputClock
    fsl_clock.o(i.CLOCK_GetFreq) refers to uldiv.o(.text) for __aeabi_uldivmod
    fsl_clock.o(i.CLOCK_GetFreq) refers to fsl_clock.o(i.CLOCK_GetI2SMClkFreq) for CLOCK_GetI2SMClkFreq
    fsl_clock.o(i.CLOCK_GetFreq) refers to fsl_clock.o(i.CLOCK_GetAsyncApbClkFreq) for CLOCK_GetAsyncApbClkFreq
    fsl_clock.o(i.CLOCK_GetFreq) refers to fsl_clock.o(i.CLOCK_GetFlexCommClkFreq) for CLOCK_GetFlexCommClkFreq
    fsl_clock.o(i.CLOCK_GetI2SMClkFreq) refers to fsl_clock.o(.data) for g_I2S_Mclk_Freq
    fsl_clock.o(i.CLOCK_GetPllConfig) refers to fsl_clock.o(i.FindGreatestCommonDivisor) for FindGreatestCommonDivisor
    fsl_clock.o(i.CLOCK_GetPllConfig) refers to fsl_clock.o(i.pllFindSel) for pllFindSel
    fsl_clock.o(i.CLOCK_GetPllConfig) refers to fsl_clock.o(i.pllEncodeM) for pllEncodeM
    fsl_clock.o(i.CLOCK_GetPllConfig) refers to uldiv.o(.text) for __aeabi_uldivmod
    fsl_clock.o(i.CLOCK_GetPllConfig) refers to fsl_clock.o(i.pllEncodeN) for pllEncodeN
    fsl_clock.o(i.CLOCK_GetPllConfig) refers to fsl_clock.o(i.pllEncodeP) for pllEncodeP
    fsl_clock.o(i.CLOCK_GetPllOutFreq) refers to fsl_clock.o(.data) for s_Pll_Freq
    fsl_clock.o(i.CLOCK_GetSystemPLLInClockRate) refers to fsl_clock.o(i.CLOCK_GetExtClkFreq) for CLOCK_GetExtClkFreq
    fsl_clock.o(i.CLOCK_GetSystemPLLInClockRate) refers to fsl_clock.o(i.CLOCK_GetWdtOscFreq) for CLOCK_GetWdtOscFreq
    fsl_clock.o(i.CLOCK_GetSystemPLLInClockRate) refers to fsl_clock.o(i.CLOCK_GetOsc32KFreq) for CLOCK_GetOsc32KFreq
    fsl_clock.o(i.CLOCK_GetSystemPLLOutClockRate) refers to fsl_clock.o(i.CLOCK_GetSystemPLLOutFromSetupUpdate) for CLOCK_GetSystemPLLOutFromSetupUpdate
    fsl_clock.o(i.CLOCK_GetSystemPLLOutClockRate) refers to fsl_clock.o(.data) for s_Pll_Freq
    fsl_clock.o(i.CLOCK_GetSystemPLLOutFromSetup) refers to fsl_clock.o(i.CLOCK_GetSystemPLLInClockRate) for CLOCK_GetSystemPLLInClockRate
    fsl_clock.o(i.CLOCK_GetSystemPLLOutFromSetup) refers to fsl_clock.o(i.findPllPreDiv) for findPllPreDiv
    fsl_clock.o(i.CLOCK_GetSystemPLLOutFromSetup) refers to fsl_clock.o(i.findPllMMult) for findPllMMult
    fsl_clock.o(i.CLOCK_GetSystemPLLOutFromSetup) refers to uldiv.o(.text) for __aeabi_uldivmod
    fsl_clock.o(i.CLOCK_GetSystemPLLOutFromSetup) refers to fsl_clock.o(i.findPllPostDiv) for findPllPostDiv
    fsl_clock.o(i.CLOCK_GetSystemPLLOutFromSetupUpdate) refers to fsl_clock.o(i.CLOCK_GetSystemPLLOutFromSetup) for CLOCK_GetSystemPLLOutFromSetup
    fsl_clock.o(i.CLOCK_GetSystemPLLOutFromSetupUpdate) refers to fsl_clock.o(.data) for s_Pll_Freq
    fsl_clock.o(i.CLOCK_GetWdtOscFreq) refers to fsl_clock.o(.constdata) for wdtFreqLookup
    fsl_clock.o(i.CLOCK_SetFLASHAccessCyclesForFreq) refers to fsl_clock.o(i.CLOCK_SetFLASHAccessCycles) for CLOCK_SetFLASHAccessCycles
    fsl_clock.o(i.CLOCK_SetFRGClock) refers to fsl_clock.o(i.CLOCK_GetFRGInputClock) for CLOCK_GetFRGInputClock
    fsl_clock.o(i.CLOCK_SetFRGClock) refers to uldiv.o(.text) for __aeabi_uldivmod
    fsl_clock.o(i.CLOCK_SetPLLFreq) refers to fsl_clock.o(i.POWER_EnablePD) for POWER_EnablePD
    fsl_clock.o(i.CLOCK_SetPLLFreq) refers to fsl_clock.o(i.POWER_DisablePD) for POWER_DisablePD
    fsl_clock.o(i.CLOCK_SetPLLFreq) refers to fsl_clock.o(.data) for s_Pll_Freq
    fsl_clock.o(i.CLOCK_SetStoredPLLClockRate) refers to fsl_clock.o(.data) for s_Pll_Freq
    fsl_clock.o(i.CLOCK_SetupFROClocking) refers to fsl_clock.o(i.POWER_DisablePD) for POWER_DisablePD
    fsl_clock.o(i.CLOCK_SetupPLLData) refers to fsl_clock.o(i.CLOCK_GetSystemPLLInClockRate) for CLOCK_GetSystemPLLInClockRate
    fsl_clock.o(i.CLOCK_SetupPLLData) refers to fsl_clock.o(i.CLOCK_GetPllConfig) for CLOCK_GetPllConfig
    fsl_clock.o(i.CLOCK_SetupSystemPLLMult) refers to fsl_clock.o(i.pllEncodeM) for pllEncodeM
    fsl_clock.o(i.CLOCK_SetupSystemPLLPrec) refers to fsl_clock.o(i.POWER_EnablePD) for POWER_EnablePD
    fsl_clock.o(i.CLOCK_SetupSystemPLLPrec) refers to fsl_clock.o(i.POWER_DisablePD) for POWER_DisablePD
    fsl_clock.o(i.CLOCK_SetupSystemPLLPrec) refers to fsl_clock.o(i.CLOCK_GetSystemPLLOutFromSetupUpdate) for CLOCK_GetSystemPLLOutFromSetupUpdate
    fsl_clock.o(i.CLOCK_SetupSystemPLLPrec) refers to fsl_power_lib.o(i.POWER_SetVoltageForFreq) for POWER_SetVoltageForFreq
    fsl_clock.o(i.CLOCK_SetupSystemPLLPrec) refers to fsl_clock.o(.data) for s_Pll_Freq
    fsl_clock.o(i.findPllMMult) refers to fsl_clock.o(i.pllDecodeM) for pllDecodeM
    fsl_clock.o(i.findPllPostDiv) refers to fsl_clock.o(i.pllDecodeP) for pllDecodeP
    fsl_clock.o(i.findPllPreDiv) refers to fsl_clock.o(i.pllDecodeN) for pllDecodeN
    fsl_reset.o(i.RESET_ClearPeripheralReset) refers to fsl_common.o(i.__aeabi_assert) for __aeabi_assert
    fsl_reset.o(i.RESET_PeripheralReset) refers to fsl_reset.o(i.RESET_SetPeripheralReset) for RESET_SetPeripheralReset
    fsl_reset.o(i.RESET_PeripheralReset) refers to fsl_reset.o(i.RESET_ClearPeripheralReset) for RESET_ClearPeripheralReset
    fsl_reset.o(i.RESET_SetPeripheralReset) refers to fsl_common.o(i.__aeabi_assert) for __aeabi_assert
    fsl_i2c.o(i.I2C_GetInstance) refers to fsl_common.o(i.__aeabi_assert) for __aeabi_assert
    fsl_i2c.o(i.I2C_GetInstance) refers to fsl_i2c.o(.constdata) for s_i2cBaseAddrs
    fsl_i2c.o(i.I2C_InitTransferStateMachine) refers to memmovea.o(.text) for __aeabi_memcpy4
    fsl_i2c.o(i.I2C_MasterDeinit) refers to fsl_i2c.o(i.I2C_MasterEnable) for I2C_MasterEnable
    fsl_i2c.o(i.I2C_MasterInit) refers to fsl_flexcomm.o(i.FLEXCOMM_Init) for FLEXCOMM_Init
    fsl_i2c.o(i.I2C_MasterInit) refers to fsl_i2c.o(i.I2C_MasterEnable) for I2C_MasterEnable
    fsl_i2c.o(i.I2C_MasterInit) refers to fsl_i2c.o(i.I2C_MasterSetBaudRate) for I2C_MasterSetBaudRate
    fsl_i2c.o(i.I2C_MasterReadBlocking) refers to fsl_common.o(i.__aeabi_assert) for __aeabi_assert
    fsl_i2c.o(i.I2C_MasterReadBlocking) refers to fsl_i2c.o(i.I2C_PendingStatusWait) for I2C_PendingStatusWait
    fsl_i2c.o(i.I2C_MasterRepeatedStart) refers to fsl_i2c.o(i.I2C_MasterStart) for I2C_MasterStart
    fsl_i2c.o(i.I2C_MasterStart) refers to fsl_i2c.o(i.I2C_PendingStatusWait) for I2C_PendingStatusWait
    fsl_i2c.o(i.I2C_MasterStop) refers to fsl_i2c.o(i.I2C_PendingStatusWait) for I2C_PendingStatusWait
    fsl_i2c.o(i.I2C_MasterTransferAbort) refers to fsl_i2c.o(i.I2C_DisableInterrupts) for I2C_DisableInterrupts
    fsl_i2c.o(i.I2C_MasterTransferAbort) refers to fsl_i2c.o(i.I2C_PendingStatusWait) for I2C_PendingStatusWait
    fsl_i2c.o(i.I2C_MasterTransferBlocking) refers to fsl_common.o(i.__aeabi_assert) for __aeabi_assert
    fsl_i2c.o(i.I2C_MasterTransferBlocking) refers to fsl_i2c.o(i.I2C_MasterStart) for I2C_MasterStart
    fsl_i2c.o(i.I2C_MasterTransferBlocking) refers to fsl_i2c.o(i.I2C_MasterWriteBlocking) for I2C_MasterWriteBlocking
    fsl_i2c.o(i.I2C_MasterTransferBlocking) refers to fsl_i2c.o(i.I2C_MasterRepeatedStart) for I2C_MasterRepeatedStart
    fsl_i2c.o(i.I2C_MasterTransferBlocking) refers to fsl_i2c.o(i.I2C_MasterReadBlocking) for I2C_MasterReadBlocking
    fsl_i2c.o(i.I2C_MasterTransferBlocking) refers to fsl_i2c.o(i.I2C_MasterStop) for I2C_MasterStop
    fsl_i2c.o(i.I2C_MasterTransferCreateHandle) refers to fsl_common.o(i.__aeabi_assert) for __aeabi_assert
    fsl_i2c.o(i.I2C_MasterTransferCreateHandle) refers to memseta.o(.text) for __aeabi_memclr4
    fsl_i2c.o(i.I2C_MasterTransferCreateHandle) refers to fsl_i2c.o(i.I2C_GetInstance) for I2C_GetInstance
    fsl_i2c.o(i.I2C_MasterTransferCreateHandle) refers to fsl_flexcomm.o(i.FLEXCOMM_SetIRQHandler) for FLEXCOMM_SetIRQHandler
    fsl_i2c.o(i.I2C_MasterTransferCreateHandle) refers to fsl_i2c.o(i.I2C_DisableInterrupts) for I2C_DisableInterrupts
    fsl_i2c.o(i.I2C_MasterTransferCreateHandle) refers to fsl_i2c.o(i.EnableIRQ) for EnableIRQ
    fsl_i2c.o(i.I2C_MasterTransferCreateHandle) refers to fsl_i2c.o(i.I2C_MasterTransferHandleIRQ) for I2C_MasterTransferHandleIRQ
    fsl_i2c.o(i.I2C_MasterTransferCreateHandle) refers to fsl_i2c.o(.constdata) for s_i2cIRQ
    fsl_i2c.o(i.I2C_MasterTransferGetCount) refers to fsl_common.o(i.__aeabi_assert) for __aeabi_assert
    fsl_i2c.o(i.I2C_MasterTransferHandleIRQ) refers to fsl_i2c.o(i.I2C_RunTransferStateMachine) for I2C_RunTransferStateMachine
    fsl_i2c.o(i.I2C_MasterTransferHandleIRQ) refers to fsl_i2c.o(i.I2C_DisableInterrupts) for I2C_DisableInterrupts
    fsl_i2c.o(i.I2C_MasterTransferNonBlocking) refers to fsl_common.o(i.__aeabi_assert) for __aeabi_assert
    fsl_i2c.o(i.I2C_MasterTransferNonBlocking) refers to fsl_i2c.o(i.I2C_DisableInterrupts) for I2C_DisableInterrupts
    fsl_i2c.o(i.I2C_MasterTransferNonBlocking) refers to fsl_i2c.o(i.I2C_InitTransferStateMachine) for I2C_InitTransferStateMachine
    fsl_i2c.o(i.I2C_MasterTransferNonBlocking) refers to fsl_i2c.o(i.I2C_MasterClearStatusFlags) for I2C_MasterClearStatusFlags
    fsl_i2c.o(i.I2C_MasterTransferNonBlocking) refers to fsl_i2c.o(i.I2C_EnableInterrupts) for I2C_EnableInterrupts
    fsl_i2c.o(i.I2C_MasterWriteBlocking) refers to fsl_common.o(i.__aeabi_assert) for __aeabi_assert
    fsl_i2c.o(i.I2C_MasterWriteBlocking) refers to fsl_i2c.o(i.I2C_PendingStatusWait) for I2C_PendingStatusWait
    fsl_i2c.o(i.I2C_PendingStatusWait) refers to fsl_i2c.o(i.I2C_MasterClearStatusFlags) for I2C_MasterClearStatusFlags
    fsl_i2c.o(i.I2C_RunTransferStateMachine) refers to fsl_i2c.o(i.I2C_MasterClearStatusFlags) for I2C_MasterClearStatusFlags
    fsl_i2c.o(i.I2C_SlaveAddressIRQ) refers to fsl_i2c.o(i.I2C_SlaveInvokeEvent) for I2C_SlaveInvokeEvent
    fsl_i2c.o(i.I2C_SlaveDeinit) refers to fsl_i2c.o(i.I2C_SlaveEnable) for I2C_SlaveEnable
    fsl_i2c.o(i.I2C_SlaveGetDefaultConfig) refers to fsl_common.o(i.__aeabi_assert) for __aeabi_assert
    fsl_i2c.o(i.I2C_SlaveInit) refers to fsl_i2c.o(i.I2C_SlaveDivVal) for I2C_SlaveDivVal
    fsl_i2c.o(i.I2C_SlaveInit) refers to fsl_flexcomm.o(i.FLEXCOMM_Init) for FLEXCOMM_Init
    fsl_i2c.o(i.I2C_SlaveInit) refers to fsl_i2c.o(i.I2C_SlaveSetAddress) for I2C_SlaveSetAddress
    fsl_i2c.o(i.I2C_SlaveInternalStateMachineReset) refers to fsl_i2c.o(i.I2C_SlaveEnable) for I2C_SlaveEnable
    fsl_i2c.o(i.I2C_SlaveReadBlocking) refers to fsl_i2c.o(i.I2C_SlaveEnable) for I2C_SlaveEnable
    fsl_i2c.o(i.I2C_SlaveReadBlocking) refers to fsl_i2c.o(i.I2C_SlavePollPending) for I2C_SlavePollPending
    fsl_i2c.o(i.I2C_SlaveReadBlocking) refers to fsl_i2c.o(i.I2C_SlaveInternalStateMachineReset) for I2C_SlaveInternalStateMachineReset
    fsl_i2c.o(i.I2C_SlaveSetReceiveBuffer) refers to fsl_i2c.o(i.I2C_SlaveTransferNonBlockingInternal) for I2C_SlaveTransferNonBlockingInternal
    fsl_i2c.o(i.I2C_SlaveSetSendBuffer) refers to fsl_i2c.o(i.I2C_SlaveTransferNonBlockingInternal) for I2C_SlaveTransferNonBlockingInternal
    fsl_i2c.o(i.I2C_SlaveTransferAbort) refers to fsl_i2c.o(i.I2C_DisableInterrupts) for I2C_DisableInterrupts
    fsl_i2c.o(i.I2C_SlaveTransferAbort) refers to fsl_i2c.o(i.I2C_SlaveEnable) for I2C_SlaveEnable
    fsl_i2c.o(i.I2C_SlaveTransferCreateHandle) refers to fsl_common.o(i.__aeabi_assert) for __aeabi_assert
    fsl_i2c.o(i.I2C_SlaveTransferCreateHandle) refers to memseta.o(.text) for __aeabi_memclr4
    fsl_i2c.o(i.I2C_SlaveTransferCreateHandle) refers to fsl_i2c.o(i.I2C_GetInstance) for I2C_GetInstance
    fsl_i2c.o(i.I2C_SlaveTransferCreateHandle) refers to fsl_flexcomm.o(i.FLEXCOMM_SetIRQHandler) for FLEXCOMM_SetIRQHandler
    fsl_i2c.o(i.I2C_SlaveTransferCreateHandle) refers to fsl_i2c.o(i.I2C_DisableInterrupts) for I2C_DisableInterrupts
    fsl_i2c.o(i.I2C_SlaveTransferCreateHandle) refers to fsl_i2c.o(i.EnableIRQ) for EnableIRQ
    fsl_i2c.o(i.I2C_SlaveTransferCreateHandle) refers to fsl_i2c.o(i.I2C_SlaveTransferHandleIRQ) for I2C_SlaveTransferHandleIRQ
    fsl_i2c.o(i.I2C_SlaveTransferCreateHandle) refers to fsl_i2c.o(.constdata) for s_i2cIRQ
    fsl_i2c.o(i.I2C_SlaveTransferGetCount) refers to fsl_common.o(i.__aeabi_assert) for __aeabi_assert
    fsl_i2c.o(i.I2C_SlaveTransferHandleIRQ) refers to fsl_i2c.o(i.I2C_SlaveInvokeEvent) for I2C_SlaveInvokeEvent
    fsl_i2c.o(i.I2C_SlaveTransferHandleIRQ) refers to fsl_i2c.o(i.I2C_SlaveAddressIRQ) for I2C_SlaveAddressIRQ
    fsl_i2c.o(i.I2C_SlaveTransferNonBlocking) refers to fsl_i2c.o(i.I2C_SlaveTransferNonBlockingInternal) for I2C_SlaveTransferNonBlockingInternal
    fsl_i2c.o(i.I2C_SlaveTransferNonBlockingInternal) refers to fsl_common.o(i.__aeabi_assert) for __aeabi_assert
    fsl_i2c.o(i.I2C_SlaveTransferNonBlockingInternal) refers to fsl_i2c.o(i.I2C_DisableInterrupts) for I2C_DisableInterrupts
    fsl_i2c.o(i.I2C_SlaveTransferNonBlockingInternal) refers to fsl_i2c.o(i.I2C_SlaveEnable) for I2C_SlaveEnable
    fsl_i2c.o(i.I2C_SlaveTransferNonBlockingInternal) refers to fsl_i2c.o(i.I2C_EnableInterrupts) for I2C_EnableInterrupts
    fsl_i2c.o(i.I2C_SlaveWriteBlocking) refers to fsl_i2c.o(i.I2C_SlaveEnable) for I2C_SlaveEnable
    fsl_i2c.o(i.I2C_SlaveWriteBlocking) refers to fsl_i2c.o(i.I2C_SlavePollPending) for I2C_SlavePollPending
    fsl_i2c.o(i.I2C_SlaveWriteBlocking) refers to fsl_i2c.o(i.I2C_SlaveInternalStateMachineReset) for I2C_SlaveInternalStateMachineReset
    fsl_spi.o(i.SPI_Deinit) refers to fsl_common.o(i.__aeabi_assert) for __aeabi_assert
    fsl_spi.o(i.SPI_GetConfig) refers to fsl_spi.o(i.SPI_GetInstance) for SPI_GetInstance
    fsl_spi.o(i.SPI_GetConfig) refers to fsl_spi.o(.bss) for g_configs
    fsl_spi.o(i.SPI_GetInstance) refers to fsl_common.o(i.__aeabi_assert) for __aeabi_assert
    fsl_spi.o(i.SPI_GetInstance) refers to fsl_spi.o(.constdata) for s_spiBaseAddrs
    fsl_spi.o(i.SPI_MasterGetDefaultConfig) refers to fsl_common.o(i.__aeabi_assert) for __aeabi_assert
    fsl_spi.o(i.SPI_MasterInit) refers to fsl_common.o(i.__aeabi_assert) for __aeabi_assert
    fsl_spi.o(i.SPI_MasterInit) refers to fsl_flexcomm.o(i.FLEXCOMM_Init) for FLEXCOMM_Init
    fsl_spi.o(i.SPI_MasterInit) refers to fsl_spi.o(i.SPI_MasterSetBaud) for SPI_MasterSetBaud
    fsl_spi.o(i.SPI_MasterInit) refers to fsl_spi.o(i.SPI_GetInstance) for SPI_GetInstance
    fsl_spi.o(i.SPI_MasterInit) refers to fsl_spi.o(i.SPI_Enable) for SPI_Enable
    fsl_spi.o(i.SPI_MasterInit) refers to fsl_spi.o(.bss) for g_configs
    fsl_spi.o(i.SPI_MasterSetBaud) refers to fsl_common.o(i.__aeabi_assert) for __aeabi_assert
    fsl_spi.o(i.SPI_MasterTransferAbort) refers to fsl_common.o(i.__aeabi_assert) for __aeabi_assert
    fsl_spi.o(i.SPI_MasterTransferBlocking) refers to fsl_common.o(i.__aeabi_assert) for __aeabi_assert
    fsl_spi.o(i.SPI_MasterTransferBlocking) refers to fsl_spi.o(i.SPI_GetInstance) for SPI_GetInstance
    fsl_spi.o(i.SPI_MasterTransferBlocking) refers to fsl_spi.o(.conststring) for .conststring
    fsl_spi.o(i.SPI_MasterTransferBlocking) refers to fsl_spi.o(.bss) for g_configs
    fsl_spi.o(i.SPI_MasterTransferCreateHandle) refers to fsl_common.o(i.__aeabi_assert) for __aeabi_assert
    fsl_spi.o(i.SPI_MasterTransferCreateHandle) refers to fsl_spi.o(i.SPI_GetInstance) for SPI_GetInstance
    fsl_spi.o(i.SPI_MasterTransferCreateHandle) refers to memseta.o(.text) for __aeabi_memclr4
    fsl_spi.o(i.SPI_MasterTransferCreateHandle) refers to fsl_flexcomm.o(i.FLEXCOMM_SetIRQHandler) for FLEXCOMM_SetIRQHandler
    fsl_spi.o(i.SPI_MasterTransferCreateHandle) refers to fsl_spi.o(i.SPI_MasterTransferHandleIRQ) for SPI_MasterTransferHandleIRQ
    fsl_spi.o(i.SPI_MasterTransferCreateHandle) refers to fsl_spi.o(i.SPI_SlaveTransferHandleIRQ) for SPI_SlaveTransferHandleIRQ
    fsl_spi.o(i.SPI_MasterTransferCreateHandle) refers to fsl_spi.o(.bss) for g_configs
    fsl_spi.o(i.SPI_MasterTransferCreateHandle) refers to fsl_spi.o(.constdata) for s_spiIRQ
    fsl_spi.o(i.SPI_MasterTransferGetCount) refers to fsl_common.o(i.__aeabi_assert) for __aeabi_assert
    fsl_spi.o(i.SPI_MasterTransferHandleIRQ) refers to fsl_common.o(i.__aeabi_assert) for __aeabi_assert
    fsl_spi.o(i.SPI_MasterTransferHandleIRQ) refers to fsl_spi.o(i.SPI_TransferHandleIRQInternal) for SPI_TransferHandleIRQInternal
    fsl_spi.o(i.SPI_MasterTransferNonBlocking) refers to fsl_common.o(i.__aeabi_assert) for __aeabi_assert
    fsl_spi.o(i.SPI_MasterTransferNonBlocking) refers to fsl_spi.o(.conststring) for .conststring
    fsl_spi.o(i.SPI_SlaveGetDefaultConfig) refers to fsl_common.o(i.__aeabi_assert) for __aeabi_assert
    fsl_spi.o(i.SPI_SlaveInit) refers to fsl_common.o(i.__aeabi_assert) for __aeabi_assert
    fsl_spi.o(i.SPI_SlaveInit) refers to fsl_flexcomm.o(i.FLEXCOMM_Init) for FLEXCOMM_Init
    fsl_spi.o(i.SPI_SlaveInit) refers to fsl_spi.o(i.SPI_GetInstance) for SPI_GetInstance
    fsl_spi.o(i.SPI_SlaveInit) refers to fsl_spi.o(i.SPI_Enable) for SPI_Enable
    fsl_spi.o(i.SPI_SlaveInit) refers to fsl_spi.o(.bss) for g_configs
    fsl_spi.o(i.SPI_SlaveTransferHandleIRQ) refers to fsl_spi.o(i.SPI_MasterTransferHandleIRQ) for SPI_MasterTransferHandleIRQ
    fsl_spi.o(i.SPI_TransferHandleIRQInternal) refers to fsl_common.o(i.__aeabi_assert) for __aeabi_assert
    fsl_spi.o(i.SPI_TransferHandleIRQInternal) refers to fsl_spi.o(.conststring) for .conststring
    fsl_spi.o(i.SPI_WriteData) refers to fsl_common.o(i.__aeabi_assert) for __aeabi_assert
    fsl_spi.o(i.SPI_WriteData) refers to fsl_spi.o(i.SPI_GetInstance) for SPI_GetInstance
    fsl_spi.o(i.SPI_WriteData) refers to fsl_spi.o(.bss) for g_configs
    fsl_pint.o(i.PINT_Deinit) refers to fsl_common.o(i.__aeabi_assert) for __aeabi_assert
    fsl_pint.o(i.PINT_Deinit) refers to fsl_pint.o(i.PINT_DisableCallback) for PINT_DisableCallback
    fsl_pint.o(i.PINT_Deinit) refers to fsl_reset.o(i.RESET_PeripheralReset) for RESET_PeripheralReset
    fsl_pint.o(i.PINT_Deinit) refers to fsl_pint.o(.bss) for s_pintCallback
    fsl_pint.o(i.PINT_DisableCallback) refers to fsl_common.o(i.__aeabi_assert) for __aeabi_assert
    fsl_pint.o(i.PINT_DisableCallback) refers to fsl_pint.o(i.PINT_PinInterruptClrStatus) for PINT_PinInterruptClrStatus
    fsl_pint.o(i.PINT_DisableCallback) refers to fsl_pint.o(i.NVIC_ClearPendingIRQ) for NVIC_ClearPendingIRQ
    fsl_pint.o(i.PINT_DisableCallback) refers to fsl_pint.o(.constdata) for s_pintIRQ
    fsl_pint.o(i.PINT_EnableCallback) refers to fsl_common.o(i.__aeabi_assert) for __aeabi_assert
    fsl_pint.o(i.PINT_EnableCallback) refers to fsl_pint.o(i.NVIC_ClearPendingIRQ) for NVIC_ClearPendingIRQ
    fsl_pint.o(i.PINT_EnableCallback) refers to fsl_pint.o(i.PINT_PinInterruptClrStatus) for PINT_PinInterruptClrStatus
    fsl_pint.o(i.PINT_EnableCallback) refers to fsl_pint.o(.constdata) for s_pintIRQ
    fsl_pint.o(i.PINT_Init) refers to fsl_common.o(i.__aeabi_assert) for __aeabi_assert
    fsl_pint.o(i.PINT_Init) refers to fsl_reset.o(i.RESET_PeripheralReset) for RESET_PeripheralReset
    fsl_pint.o(i.PINT_Init) refers to fsl_pint.o(.bss) for s_pintCallback
    fsl_pint.o(i.PINT_PatternMatchConfig) refers to fsl_common.o(i.__aeabi_assert) for __aeabi_assert
    fsl_pint.o(i.PINT_PatternMatchConfig) refers to fsl_pint.o(.bss) for s_pintCallback
    fsl_pint.o(i.PINT_PatternMatchGetConfig) refers to fsl_common.o(i.__aeabi_assert) for __aeabi_assert
    fsl_pint.o(i.PINT_PatternMatchGetConfig) refers to fsl_pint.o(.bss) for s_pintCallback
    fsl_pint.o(i.PINT_PinInterruptConfig) refers to fsl_common.o(i.__aeabi_assert) for __aeabi_assert
    fsl_pint.o(i.PINT_PinInterruptConfig) refers to fsl_pint.o(.bss) for s_pintCallback
    fsl_pint.o(i.PINT_PinInterruptGetConfig) refers to fsl_common.o(i.__aeabi_assert) for __aeabi_assert
    fsl_pint.o(i.PINT_PinInterruptGetConfig) refers to fsl_pint.o(.bss) for s_pintCallback
    fsl_pint.o(i.PIN_INT0_DriverIRQHandler) refers to fsl_pint.o(i.PINT_PatternMatchResetDetectLogic) for PINT_PatternMatchResetDetectLogic
    fsl_pint.o(i.PIN_INT0_DriverIRQHandler) refers to fsl_pint.o(i.PINT_PinInterruptClrStatus) for PINT_PinInterruptClrStatus
    fsl_pint.o(i.PIN_INT0_DriverIRQHandler) refers to fsl_pint.o(.bss) for s_pintCallback
    fsl_pint.o(i.PIN_INT1_DriverIRQHandler) refers to fsl_pint.o(i.PINT_PatternMatchResetDetectLogic) for PINT_PatternMatchResetDetectLogic
    fsl_pint.o(i.PIN_INT1_DriverIRQHandler) refers to fsl_pint.o(i.PINT_PinInterruptClrStatus) for PINT_PinInterruptClrStatus
    fsl_pint.o(i.PIN_INT1_DriverIRQHandler) refers to fsl_pint.o(.bss) for s_pintCallback
    fsl_pint.o(i.PIN_INT2_DriverIRQHandler) refers to fsl_pint.o(i.PINT_PatternMatchResetDetectLogic) for PINT_PatternMatchResetDetectLogic
    fsl_pint.o(i.PIN_INT2_DriverIRQHandler) refers to fsl_pint.o(i.PINT_PinInterruptClrStatus) for PINT_PinInterruptClrStatus
    fsl_pint.o(i.PIN_INT2_DriverIRQHandler) refers to fsl_pint.o(.bss) for s_pintCallback
    fsl_pint.o(i.PIN_INT3_DriverIRQHandler) refers to fsl_pint.o(i.PINT_PatternMatchResetDetectLogic) for PINT_PatternMatchResetDetectLogic
    fsl_pint.o(i.PIN_INT3_DriverIRQHandler) refers to fsl_pint.o(i.PINT_PinInterruptClrStatus) for PINT_PinInterruptClrStatus
    fsl_pint.o(i.PIN_INT3_DriverIRQHandler) refers to fsl_pint.o(.bss) for s_pintCallback
    fsl_pint.o(i.PIN_INT4_DriverIRQHandler) refers to fsl_pint.o(i.PINT_PatternMatchResetDetectLogic) for PINT_PatternMatchResetDetectLogic
    fsl_pint.o(i.PIN_INT4_DriverIRQHandler) refers to fsl_pint.o(i.PINT_PinInterruptClrStatus) for PINT_PinInterruptClrStatus
    fsl_pint.o(i.PIN_INT4_DriverIRQHandler) refers to fsl_pint.o(.bss) for s_pintCallback
    fsl_pint.o(i.PIN_INT5_DriverIRQHandler) refers to fsl_pint.o(i.PINT_PatternMatchResetDetectLogic) for PINT_PatternMatchResetDetectLogic
    fsl_pint.o(i.PIN_INT5_DriverIRQHandler) refers to fsl_pint.o(i.PINT_PinInterruptClrStatus) for PINT_PinInterruptClrStatus
    fsl_pint.o(i.PIN_INT5_DriverIRQHandler) refers to fsl_pint.o(.bss) for s_pintCallback
    fsl_pint.o(i.PIN_INT6_DriverIRQHandler) refers to fsl_pint.o(i.PINT_PatternMatchResetDetectLogic) for PINT_PatternMatchResetDetectLogic
    fsl_pint.o(i.PIN_INT6_DriverIRQHandler) refers to fsl_pint.o(i.PINT_PinInterruptClrStatus) for PINT_PinInterruptClrStatus
    fsl_pint.o(i.PIN_INT6_DriverIRQHandler) refers to fsl_pint.o(.bss) for s_pintCallback
    fsl_pint.o(i.PIN_INT7_DriverIRQHandler) refers to fsl_pint.o(i.PINT_PatternMatchResetDetectLogic) for PINT_PatternMatchResetDetectLogic
    fsl_pint.o(i.PIN_INT7_DriverIRQHandler) refers to fsl_pint.o(i.PINT_PinInterruptClrStatus) for PINT_PinInterruptClrStatus
    fsl_pint.o(i.PIN_INT7_DriverIRQHandler) refers to fsl_pint.o(.bss) for s_pintCallback
    fsl_ctimer.o(i.CTIMER0_DriverIRQHandler) refers to fsl_ctimer.o(i.CTIMER_GenericIRQHandler) for CTIMER_GenericIRQHandler
    fsl_ctimer.o(i.CTIMER1_DriverIRQHandler) refers to fsl_ctimer.o(i.CTIMER_GenericIRQHandler) for CTIMER_GenericIRQHandler
    fsl_ctimer.o(i.CTIMER2_DriverIRQHandler) refers to fsl_ctimer.o(i.CTIMER_GenericIRQHandler) for CTIMER_GenericIRQHandler
    fsl_ctimer.o(i.CTIMER3_DriverIRQHandler) refers to fsl_ctimer.o(i.CTIMER_GenericIRQHandler) for CTIMER_GenericIRQHandler
    fsl_ctimer.o(i.CTIMER4_DriverIRQHandler) refers to fsl_ctimer.o(i.CTIMER_GenericIRQHandler) for CTIMER_GenericIRQHandler
    fsl_ctimer.o(i.CTIMER_Deinit) refers to fsl_ctimer.o(i.CTIMER_GetInstance) for CTIMER_GetInstance
    fsl_ctimer.o(i.CTIMER_Deinit) refers to fsl_ctimer.o(.constdata) for s_ctimerClocks
    fsl_ctimer.o(i.CTIMER_GenericIRQHandler) refers to fsl_ctimer.o(i.CTIMER_ClearStatusFlags) for CTIMER_ClearStatusFlags
    fsl_ctimer.o(i.CTIMER_GenericIRQHandler) refers to fsl_ctimer.o(.constdata) for s_ctimerBases
    fsl_ctimer.o(i.CTIMER_GenericIRQHandler) refers to fsl_ctimer.o(.data) for ctimerCallbackType
    fsl_ctimer.o(i.CTIMER_GenericIRQHandler) refers to fsl_ctimer.o(.bss) for s_ctimerCallback
    fsl_ctimer.o(i.CTIMER_GetDefaultConfig) refers to fsl_common.o(i.__aeabi_assert) for __aeabi_assert
    fsl_ctimer.o(i.CTIMER_GetInstance) refers to fsl_common.o(i.__aeabi_assert) for __aeabi_assert
    fsl_ctimer.o(i.CTIMER_GetInstance) refers to fsl_ctimer.o(.constdata) for s_ctimerBases
    fsl_ctimer.o(i.CTIMER_Init) refers to fsl_common.o(i.__aeabi_assert) for __aeabi_assert
    fsl_ctimer.o(i.CTIMER_Init) refers to fsl_ctimer.o(i.CTIMER_GetInstance) for CTIMER_GetInstance
    fsl_ctimer.o(i.CTIMER_Init) refers to fsl_reset.o(i.RESET_PeripheralReset) for RESET_PeripheralReset
    fsl_ctimer.o(i.CTIMER_Init) refers to fsl_ctimer.o(.constdata) for s_ctimerClocks
    fsl_ctimer.o(i.CTIMER_RegisterCallBack) refers to fsl_ctimer.o(i.CTIMER_GetInstance) for CTIMER_GetInstance
    fsl_ctimer.o(i.CTIMER_RegisterCallBack) refers to fsl_ctimer.o(.bss) for s_ctimerCallback
    fsl_ctimer.o(i.CTIMER_RegisterCallBack) refers to fsl_ctimer.o(.data) for ctimerCallbackType
    fsl_ctimer.o(i.CTIMER_SetupCapture) refers to fsl_ctimer.o(i.CTIMER_GetInstance) for CTIMER_GetInstance
    fsl_ctimer.o(i.CTIMER_SetupCapture) refers to fsl_ctimer.o(i.CTIMER_ClearStatusFlags) for CTIMER_ClearStatusFlags
    fsl_ctimer.o(i.CTIMER_SetupCapture) refers to fsl_ctimer.o(i.EnableIRQ) for EnableIRQ
    fsl_ctimer.o(i.CTIMER_SetupCapture) refers to fsl_ctimer.o(.constdata) for s_ctimerIRQ
    fsl_ctimer.o(i.CTIMER_SetupMatch) refers to fsl_ctimer.o(i.CTIMER_GetInstance) for CTIMER_GetInstance
    fsl_ctimer.o(i.CTIMER_SetupMatch) refers to fsl_ctimer.o(i.CTIMER_ClearStatusFlags) for CTIMER_ClearStatusFlags
    fsl_ctimer.o(i.CTIMER_SetupMatch) refers to fsl_ctimer.o(i.EnableIRQ) for EnableIRQ
    fsl_ctimer.o(i.CTIMER_SetupMatch) refers to fsl_ctimer.o(.constdata) for s_ctimerIRQ
    fsl_ctimer.o(i.CTIMER_SetupPwm) refers to fsl_common.o(i.__aeabi_assert) for __aeabi_assert
    fsl_ctimer.o(i.CTIMER_SetupPwm) refers to fsl_ctimer.o(i.CTIMER_GetInstance) for CTIMER_GetInstance
    fsl_ctimer.o(i.CTIMER_SetupPwm) refers to fsl_ctimer.o(i.CTIMER_ClearStatusFlags) for CTIMER_ClearStatusFlags
    fsl_ctimer.o(i.CTIMER_SetupPwm) refers to fsl_ctimer.o(i.EnableIRQ) for EnableIRQ
    fsl_ctimer.o(i.CTIMER_SetupPwm) refers to fsl_ctimer.o(.constdata) for s_ctimerIRQ
    fsl_sctimer.o(i.SCT0_IRQHandler) refers to fsl_sctimer.o(.data) for s_sctimerIsr
    fsl_sctimer.o(i.SCTIMER_CreateAndScheduleEvent) refers to fsl_sctimer.o(.data) for s_currentEvent
    fsl_sctimer.o(i.SCTIMER_Deinit) refers to fsl_sctimer.o(i.SCTIMER_GetInstance) for SCTIMER_GetInstance
    fsl_sctimer.o(i.SCTIMER_Deinit) refers to fsl_sctimer.o(.constdata) for s_sctClocks
    fsl_sctimer.o(i.SCTIMER_EventHandleIRQ) refers to fsl_sctimer.o(.bss) for s_eventCallback
    fsl_sctimer.o(i.SCTIMER_GetCurrentState) refers to fsl_sctimer.o(.data) for s_currentState
    fsl_sctimer.o(i.SCTIMER_GetDefaultConfig) refers to fsl_common.o(i.__aeabi_assert) for __aeabi_assert
    fsl_sctimer.o(i.SCTIMER_GetInstance) refers to fsl_common.o(i.__aeabi_assert) for __aeabi_assert
    fsl_sctimer.o(i.SCTIMER_GetInstance) refers to fsl_sctimer.o(.constdata) for s_sctBases
    fsl_sctimer.o(i.SCTIMER_IncreaseState) refers to fsl_sctimer.o(.data) for s_currentState
    fsl_sctimer.o(i.SCTIMER_Init) refers to fsl_common.o(i.__aeabi_assert) for __aeabi_assert
    fsl_sctimer.o(i.SCTIMER_Init) refers to fsl_sctimer.o(i.SCTIMER_GetInstance) for SCTIMER_GetInstance
    fsl_sctimer.o(i.SCTIMER_Init) refers to fsl_reset.o(i.RESET_PeripheralReset) for RESET_PeripheralReset
    fsl_sctimer.o(i.SCTIMER_Init) refers to fsl_sctimer.o(.constdata) for s_sctClocks
    fsl_sctimer.o(i.SCTIMER_Init) refers to fsl_sctimer.o(.data) for s_currentEvent
    fsl_sctimer.o(i.SCTIMER_Init) refers to fsl_sctimer.o(.bss) for s_eventCallback
    fsl_sctimer.o(i.SCTIMER_Init) refers to fsl_sctimer.o(i.SCTIMER_EventHandleIRQ) for SCTIMER_EventHandleIRQ
    fsl_sctimer.o(i.SCTIMER_ScheduleEvent) refers to fsl_sctimer.o(.data) for s_currentState
    fsl_sctimer.o(i.SCTIMER_SetCallback) refers to fsl_sctimer.o(.bss) for s_eventCallback
    fsl_sctimer.o(i.SCTIMER_SetupCaptureAction) refers to fsl_sctimer.o(.data) for s_currentMatch
    fsl_sctimer.o(i.SCTIMER_SetupPwm) refers to fsl_common.o(i.__aeabi_assert) for __aeabi_assert
    fsl_sctimer.o(i.SCTIMER_SetupPwm) refers to fsl_sctimer.o(i.SCTIMER_CreateAndScheduleEvent) for SCTIMER_CreateAndScheduleEvent
    fsl_sctimer.o(i.SCTIMER_SetupPwm) refers to fsl_sctimer.o(i.SCTIMER_SetupOutputSetAction) for SCTIMER_SetupOutputSetAction
    fsl_sctimer.o(i.SCTIMER_SetupPwm) refers to fsl_sctimer.o(i.SCTIMER_SetupOutputClearAction) for SCTIMER_SetupOutputClearAction
    fsl_sctimer.o(i.SCTIMER_SetupPwm) refers to fsl_sctimer.o(.data) for s_currentEvent
    fsl_sctimer.o(i.SCTIMER_UpdatePwmDutycycle) refers to fsl_common.o(i.__aeabi_assert) for __aeabi_assert
    fsl_dma.o(i.DMA0_DriverIRQHandler) refers to fsl_dma.o(.bss) for s_DMAHandle
    fsl_dma.o(i.DMA_AbortTransfer) refers to fsl_common.o(i.__aeabi_assert) for __aeabi_assert
    fsl_dma.o(i.DMA_AbortTransfer) refers to fsl_dma.o(i.DMA_DisableChannel) for DMA_DisableChannel
    fsl_dma.o(i.DMA_AbortTransfer) refers to fsl_dma.o(i.DMA_EnableChannel) for DMA_EnableChannel
    fsl_dma.o(i.DMA_ChannelIsActive) refers to fsl_common.o(i.__aeabi_assert) for __aeabi_assert
    fsl_dma.o(i.DMA_ChannelIsActive) refers to fsl_dma.o(i.DMA_SubmitTransfer) for i.DMA_SubmitTransfer
    fsl_dma.o(i.DMA_ConfigureChannelTrigger) refers to fsl_common.o(i.__aeabi_assert) for __aeabi_assert
    fsl_dma.o(i.DMA_ConfigureChannelTrigger) refers to fsl_dma.o(.conststring) for .conststring
    fsl_dma.o(i.DMA_CreateDescriptor) refers to fsl_common.o(i.__aeabi_assert) for __aeabi_assert
    fsl_dma.o(i.DMA_CreateDescriptor) refers to fsl_dma.o(i.DMA_SetupXferCFG) for DMA_SetupXferCFG
    fsl_dma.o(i.DMA_CreateDescriptor) refers to fsl_dma.o(i.DMA_SetupDescriptor) for DMA_SetupDescriptor
    fsl_dma.o(i.DMA_CreateDescriptor) refers to fsl_dma.o(.conststring) for .conststring
    fsl_dma.o(i.DMA_CreateHandle) refers to fsl_common.o(i.__aeabi_assert) for __aeabi_assert
    fsl_dma.o(i.DMA_CreateHandle) refers to fsl_dma.o(i.DMA_GetInstance) for DMA_GetInstance
    fsl_dma.o(i.DMA_CreateHandle) refers to fsl_dma.o(.conststring) for .conststring
    fsl_dma.o(i.DMA_CreateHandle) refers to fsl_dma.o(.bss) for s_DMAHandle
    fsl_dma.o(i.DMA_CreateHandle) refers to fsl_dma.o(.constdata) for s_dmaIRQNumber
    fsl_dma.o(i.DMA_DisableChannel) refers to fsl_common.o(i.__aeabi_assert) for __aeabi_assert
    fsl_dma.o(i.DMA_DisableChannel) refers to fsl_dma.o(i.DMA_SubmitTransfer) for i.DMA_SubmitTransfer
    fsl_dma.o(i.DMA_EnableChannel) refers to fsl_common.o(i.__aeabi_assert) for __aeabi_assert
    fsl_dma.o(i.DMA_EnableChannel) refers to fsl_dma.o(i.DMA_SubmitTransfer) for i.DMA_SubmitTransfer
    fsl_dma.o(i.DMA_GetInstance) refers to fsl_common.o(i.__aeabi_assert) for __aeabi_assert
    fsl_dma.o(i.DMA_GetInstance) refers to fsl_dma.o(.constdata) for s_dmaBases
    fsl_dma.o(i.DMA_GetRemainingBytes) refers to fsl_common.o(i.__aeabi_assert) for __aeabi_assert
    fsl_dma.o(i.DMA_Init) refers to fsl_dma.o(.bss) for s_dma_descriptor_table
    fsl_dma.o(i.DMA_PrepareTransfer) refers to fsl_common.o(i.__aeabi_assert) for __aeabi_assert
    fsl_dma.o(i.DMA_PrepareTransfer) refers to memseta.o(.text) for __aeabi_memclr4
    fsl_dma.o(i.DMA_PrepareTransfer) refers to fsl_dma.o(.conststring) for .conststring
    fsl_dma.o(i.DMA_SetCallback) refers to fsl_common.o(i.__aeabi_assert) for __aeabi_assert
    fsl_dma.o(i.DMA_SetupXferCFG) refers to fsl_common.o(i.__aeabi_assert) for __aeabi_assert
    fsl_dma.o(i.DMA_SetupXferCFG) refers to fsl_dma.o(.conststring) for .conststring
    fsl_dma.o(i.DMA_StartTransfer) refers to fsl_common.o(i.__aeabi_assert) for __aeabi_assert
    fsl_dma.o(i.DMA_StartTransfer) refers to fsl_dma.o(.bss) for s_dma_descriptor_table
    fsl_dma.o(i.DMA_SubmitTransfer) refers to fsl_common.o(i.__aeabi_assert) for __aeabi_assert
    fsl_dma.o(i.DMA_SubmitTransfer) refers to fsl_dma.o(i.DMA_ChannelIsActive) for DMA_ChannelIsActive
    fsl_dma.o(i.DMA_SubmitTransfer) refers to fsl_dma.o(i.DMA_CreateDescriptor) for DMA_CreateDescriptor
    fsl_dma.o(i.DMA_SubmitTransfer) refers to fsl_dma.o(.bss) for s_dma_descriptor_table
    fsl_usart_dma.o(i.USART_TransferAbortReceiveDMA) refers to fsl_common.o(i.__aeabi_assert) for __aeabi_assert
    fsl_usart_dma.o(i.USART_TransferAbortReceiveDMA) refers to fsl_dma.o(i.DMA_AbortTransfer) for DMA_AbortTransfer
    fsl_usart_dma.o(i.USART_TransferAbortSendDMA) refers to fsl_common.o(i.__aeabi_assert) for __aeabi_assert
    fsl_usart_dma.o(i.USART_TransferAbortSendDMA) refers to fsl_dma.o(i.DMA_AbortTransfer) for DMA_AbortTransfer
    fsl_usart_dma.o(i.USART_TransferCreateHandleDMA) refers to fsl_common.o(i.__aeabi_assert) for __aeabi_assert
    fsl_usart_dma.o(i.USART_TransferCreateHandleDMA) refers to fsl_usart.o(i.USART_GetInstance) for USART_GetInstance
    fsl_usart_dma.o(i.USART_TransferCreateHandleDMA) refers to memseta.o(.text) for __aeabi_memclr4
    fsl_usart_dma.o(i.USART_TransferCreateHandleDMA) refers to fsl_dma.o(i.DMA_SetCallback) for DMA_SetCallback
    fsl_usart_dma.o(i.USART_TransferCreateHandleDMA) refers to fsl_usart_dma.o(.bss) for s_dmaPrivateHandle
    fsl_usart_dma.o(i.USART_TransferCreateHandleDMA) refers to fsl_usart_dma.o(i.USART_TransferSendDMACallback) for USART_TransferSendDMACallback
    fsl_usart_dma.o(i.USART_TransferCreateHandleDMA) refers to fsl_usart_dma.o(i.USART_TransferReceiveDMACallback) for USART_TransferReceiveDMACallback
    fsl_usart_dma.o(i.USART_TransferGetReceiveCountDMA) refers to fsl_common.o(i.__aeabi_assert) for __aeabi_assert
    fsl_usart_dma.o(i.USART_TransferGetReceiveCountDMA) refers to fsl_dma.o(i.DMA_GetRemainingBytes) for DMA_GetRemainingBytes
    fsl_usart_dma.o(i.USART_TransferReceiveDMA) refers to fsl_common.o(i.__aeabi_assert) for __aeabi_assert
    fsl_usart_dma.o(i.USART_TransferReceiveDMA) refers to fsl_usart_dma.o(i.USART_EnableRxDMA) for USART_EnableRxDMA
    fsl_usart_dma.o(i.USART_TransferReceiveDMA) refers to fsl_dma.o(i.DMA_PrepareTransfer) for DMA_PrepareTransfer
    fsl_usart_dma.o(i.USART_TransferReceiveDMA) refers to fsl_dma.o(i.DMA_SubmitTransfer) for DMA_SubmitTransfer
    fsl_usart_dma.o(i.USART_TransferReceiveDMA) refers to fsl_dma.o(i.DMA_StartTransfer) for DMA_StartTransfer
    fsl_usart_dma.o(i.USART_TransferReceiveDMACallback) refers to fsl_common.o(i.__aeabi_assert) for __aeabi_assert
    fsl_usart_dma.o(i.USART_TransferReceiveDMACallback) refers to fsl_usart_dma.o(i.USART_EnableRxDMA) for USART_EnableRxDMA
    fsl_usart_dma.o(i.USART_TransferSendDMA) refers to fsl_common.o(i.__aeabi_assert) for __aeabi_assert
    fsl_usart_dma.o(i.USART_TransferSendDMA) refers to fsl_usart_dma.o(i.USART_EnableTxDMA) for USART_EnableTxDMA
    fsl_usart_dma.o(i.USART_TransferSendDMA) refers to fsl_dma.o(i.DMA_PrepareTransfer) for DMA_PrepareTransfer
    fsl_usart_dma.o(i.USART_TransferSendDMA) refers to fsl_dma.o(i.DMA_SubmitTransfer) for DMA_SubmitTransfer
    fsl_usart_dma.o(i.USART_TransferSendDMA) refers to fsl_dma.o(i.DMA_StartTransfer) for DMA_StartTransfer
    fsl_usart_dma.o(i.USART_TransferSendDMACallback) refers to fsl_common.o(i.__aeabi_assert) for __aeabi_assert
    fsl_usart_dma.o(i.USART_TransferSendDMACallback) refers to fsl_usart_dma.o(i.USART_EnableTxDMA) for USART_EnableTxDMA
    fsl_usart_cmsis.o(i.DMA_DisableChannel) refers to fsl_common.o(i.__aeabi_assert) for __aeabi_assert
    fsl_usart_cmsis.o(i.DMA_EnableChannel) refers to fsl_common.o(i.__aeabi_assert) for __aeabi_assert
    fsl_usart_cmsis.o(i.USART5_DmaControl) refers to fsl_usart_cmsis.o(i.USART_DmaControl) for USART_DmaControl
    fsl_usart_cmsis.o(i.USART5_DmaControl) refers to fsl_usart_cmsis.o(usart5_dma_driver_state) for usart5_DmaDriverState
    fsl_usart_cmsis.o(i.USART5_DmaGetRxCount) refers to fsl_usart_cmsis.o(i.USART_DmaGetRxCount) for USART_DmaGetRxCount
    fsl_usart_cmsis.o(i.USART5_DmaGetRxCount) refers to fsl_usart_cmsis.o(usart5_dma_driver_state) for usart5_DmaDriverState
    fsl_usart_cmsis.o(i.USART5_DmaGetStatus) refers to fsl_usart_cmsis.o(i.USART_DmaGetStatus) for USART_DmaGetStatus
    fsl_usart_cmsis.o(i.USART5_DmaGetStatus) refers to fsl_usart_cmsis.o(usart5_dma_driver_state) for usart5_DmaDriverState
    fsl_usart_cmsis.o(i.USART5_DmaGetTxCount) refers to fsl_usart_cmsis.o(i.USART_DmaGetTxCount) for USART_DmaGetTxCount
    fsl_usart_cmsis.o(i.USART5_DmaGetTxCount) refers to fsl_usart_cmsis.o(usart5_dma_driver_state) for usart5_DmaDriverState
    fsl_usart_cmsis.o(i.USART5_DmaInitialize) refers to pin_mux.o(i.USART5_InitPins) for USART5_InitPins
    fsl_usart_cmsis.o(i.USART5_DmaInitialize) refers to fsl_usart_cmsis.o(i.USART_DmaInitialize) for USART_DmaInitialize
    fsl_usart_cmsis.o(i.USART5_DmaInitialize) refers to fsl_usart_cmsis.o(usart5_dma_driver_state) for usart5_DmaDriverState
    fsl_usart_cmsis.o(i.USART5_DmaPowerControl) refers to fsl_usart_cmsis.o(i.USART_DmaPowerControl) for USART_DmaPowerControl
    fsl_usart_cmsis.o(i.USART5_DmaPowerControl) refers to fsl_usart_cmsis.o(usart5_dma_driver_state) for usart5_DmaDriverState
    fsl_usart_cmsis.o(i.USART5_DmaReceive) refers to fsl_usart_cmsis.o(i.USART_DmaReceive) for USART_DmaReceive
    fsl_usart_cmsis.o(i.USART5_DmaReceive) refers to fsl_usart_cmsis.o(usart5_dma_driver_state) for usart5_DmaDriverState
    fsl_usart_cmsis.o(i.USART5_DmaSend) refers to fsl_usart_cmsis.o(i.USART_DmaSend) for USART_DmaSend
    fsl_usart_cmsis.o(i.USART5_DmaSend) refers to fsl_usart_cmsis.o(usart5_dma_driver_state) for usart5_DmaDriverState
    fsl_usart_cmsis.o(i.USART5_DmaTransfer) refers to fsl_usart_cmsis.o(i.USART_DmaTransfer) for USART_DmaTransfer
    fsl_usart_cmsis.o(i.USART5_DmaTransfer) refers to fsl_usart_cmsis.o(usart5_dma_driver_state) for usart5_DmaDriverState
    fsl_usart_cmsis.o(i.USART5_DmaUninitialize) refers to pin_mux.o(i.USART5_DeinitPins) for USART5_DeinitPins
    fsl_usart_cmsis.o(i.USART5_DmaUninitialize) refers to fsl_usart_cmsis.o(i.USART_DmaUninitialize) for USART_DmaUninitialize
    fsl_usart_cmsis.o(i.USART5_DmaUninitialize) refers to fsl_usart_cmsis.o(usart5_dma_driver_state) for usart5_DmaDriverState
    fsl_usart_cmsis.o(i.USART_CommonControl) refers to fsl_usart.o(i.USART_GetDefaultConfig) for USART_GetDefaultConfig
    fsl_usart_cmsis.o(i.USART_CommonControl) refers to fsl_usart.o(i.USART_Deinit) for USART_Deinit
    fsl_usart_cmsis.o(i.USART_CommonControl) refers to fsl_usart.o(i.USART_Init) for USART_Init
    fsl_usart_cmsis.o(i.USART_DmaControl) refers to fsl_dma.o(i.DMA_AbortTransfer) for DMA_AbortTransfer
    fsl_usart_cmsis.o(i.USART_DmaControl) refers to fsl_usart_cmsis.o(i.USART_CommonControl) for USART_CommonControl
    fsl_usart_cmsis.o(i.USART_DmaPowerControl) refers to fsl_usart.o(i.USART_Deinit) for USART_Deinit
    fsl_usart_cmsis.o(i.USART_DmaPowerControl) refers to fsl_usart_cmsis.o(i.DMA_DisableChannel) for DMA_DisableChannel
    fsl_usart_cmsis.o(i.USART_DmaPowerControl) refers to fsl_usart.o(i.USART_GetDefaultConfig) for USART_GetDefaultConfig
    fsl_usart_cmsis.o(i.USART_DmaPowerControl) refers to fsl_usart_cmsis.o(i.DMA_EnableChannel) for DMA_EnableChannel
    fsl_usart_cmsis.o(i.USART_DmaPowerControl) refers to fsl_dma.o(i.DMA_CreateHandle) for DMA_CreateHandle
    fsl_usart_cmsis.o(i.USART_DmaPowerControl) refers to fsl_usart.o(i.USART_Init) for USART_Init
    fsl_usart_cmsis.o(i.USART_DmaPowerControl) refers to fsl_usart_dma.o(i.USART_TransferCreateHandleDMA) for USART_TransferCreateHandleDMA
    fsl_usart_cmsis.o(i.USART_DmaPowerControl) refers to fsl_usart_cmsis.o(i.KSDK_USART_DmaCallback) for KSDK_USART_DmaCallback
    fsl_usart_cmsis.o(i.USART_DmaReceive) refers to fsl_usart_dma.o(i.USART_TransferReceiveDMA) for USART_TransferReceiveDMA
    fsl_usart_cmsis.o(i.USART_DmaSend) refers to fsl_usart_dma.o(i.USART_TransferSendDMA) for USART_TransferSendDMA
    fsl_usart_cmsis.o(i.USARTx_GetCapabilities) refers to fsl_usart_cmsis.o(.constdata) for s_usartDriverCapabilities
    fsl_usart_cmsis.o(i.USARTx_GetVersion) refers to fsl_usart_cmsis.o(.constdata) for s_usartDriverVersion
    fsl_usart_cmsis.o(.constdata) refers to smart_plc.o(i.USART5_GetFreq) for USART5_GetFreq
    fsl_usart_cmsis.o(.constdata) refers to fsl_usart_cmsis.o(i.USARTx_GetVersion) for USARTx_GetVersion
    fsl_usart_cmsis.o(.constdata) refers to fsl_usart_cmsis.o(i.USARTx_GetCapabilities) for USARTx_GetCapabilities
    fsl_usart_cmsis.o(.constdata) refers to fsl_usart_cmsis.o(i.USART5_DmaInitialize) for USART5_DmaInitialize
    fsl_usart_cmsis.o(.constdata) refers to fsl_usart_cmsis.o(i.USART5_DmaUninitialize) for USART5_DmaUninitialize
    fsl_usart_cmsis.o(.constdata) refers to fsl_usart_cmsis.o(i.USART5_DmaPowerControl) for USART5_DmaPowerControl
    fsl_usart_cmsis.o(.constdata) refers to fsl_usart_cmsis.o(i.USART5_DmaSend) for USART5_DmaSend
    fsl_usart_cmsis.o(.constdata) refers to fsl_usart_cmsis.o(i.USART5_DmaReceive) for USART5_DmaReceive
    fsl_usart_cmsis.o(.constdata) refers to fsl_usart_cmsis.o(i.USART5_DmaTransfer) for USART5_DmaTransfer
    fsl_usart_cmsis.o(.constdata) refers to fsl_usart_cmsis.o(i.USART5_DmaGetTxCount) for USART5_DmaGetTxCount
    fsl_usart_cmsis.o(.constdata) refers to fsl_usart_cmsis.o(i.USART5_DmaGetRxCount) for USART5_DmaGetRxCount
    fsl_usart_cmsis.o(.constdata) refers to fsl_usart_cmsis.o(i.USART5_DmaControl) for USART5_DmaControl
    fsl_usart_cmsis.o(.constdata) refers to fsl_usart_cmsis.o(i.USART5_DmaGetStatus) for USART5_DmaGetStatus
    fsl_usart_cmsis.o(.constdata) refers to fsl_usart_cmsis.o(i.USARTx_SetModemControl) for USARTx_SetModemControl
    fsl_usart_cmsis.o(.constdata) refers to fsl_usart_cmsis.o(i.USARTx_GetModemStatus) for USARTx_GetModemStatus
    fsl_usart_cmsis.o(usart5_dma_driver_state) refers to fsl_usart_cmsis.o(.constdata) for usart5_Resource
    fsl_usart_cmsis.o(usart5_dma_driver_state) refers to fsl_usart_cmsis.o(.bss) for USART5_DmaHandle
    pin_mux.o(i.BOARD_InitPins_Core0) refers to pin_mux.o(i.CLOCK_EnableClock) for CLOCK_EnableClock
    pin_mux.o(i.BOARD_InitPins_Core0) refers to pin_mux.o(i.IOCON_PinMuxSet) for IOCON_PinMuxSet
    pin_mux.o(i.BOARD_InitPins_Core1) refers to pin_mux.o(i.CLOCK_EnableClock) for CLOCK_EnableClock
    pin_mux.o(i.BOARD_InitPins_Core1) refers to pin_mux.o(i.IOCON_PinMuxSet) for IOCON_PinMuxSet
    pin_mux.o(i.USART5_InitPins) refers to pin_mux.o(i.CLOCK_EnableClock) for CLOCK_EnableClock
    pin_mux.o(i.USART5_InitPins) refers to pin_mux.o(i.IOCON_PinMuxSet) for IOCON_PinMuxSet
    board.o(i.BOARD_InitDebugConsole) refers to fsl_reset.o(i.RESET_PeripheralReset) for RESET_PeripheralReset
    board.o(i.BOARD_InitDebugConsole) refers to fsl_clock.o(i.CLOCK_GetFreq) for CLOCK_GetFreq
    board.o(i.BOARD_InitDebugConsole) refers to fsl_debug_console.o(i.DbgConsole_Init) for DbgConsole_Init
    board.o(i.BOARD_InitDebugConsole) refers to fsl_common.o(i.__aeabi_assert) for __aeabi_assert
    clock_config.o(i.BOARD_BootClockFRO12M) refers to clock_config.o(i.POWER_DisablePD) for POWER_DisablePD
    clock_config.o(i.BOARD_BootClockFRO12M) refers to fsl_clock.o(i.CLOCK_AttachClk) for CLOCK_AttachClk
    clock_config.o(i.BOARD_BootClockFRO12M) refers to fsl_clock.o(i.CLOCK_SetupFROClocking) for CLOCK_SetupFROClocking
    clock_config.o(i.BOARD_BootClockFRO12M) refers to fsl_power_lib.o(i.POWER_SetVoltageForFreq) for POWER_SetVoltageForFreq
    clock_config.o(i.BOARD_BootClockFRO12M) refers to fsl_clock.o(i.CLOCK_SetFLASHAccessCyclesForFreq) for CLOCK_SetFLASHAccessCyclesForFreq
    clock_config.o(i.BOARD_BootClockFRO12M) refers to fsl_clock.o(i.CLOCK_SetClkDiv) for CLOCK_SetClkDiv
    clock_config.o(i.BOARD_BootClockFRO12M) refers to system_lpc54114_cm4.o(.data) for SystemCoreClock
    clock_config.o(i.BOARD_BootClockFROHF48M) refers to clock_config.o(i.POWER_DisablePD) for POWER_DisablePD
    clock_config.o(i.BOARD_BootClockFROHF48M) refers to fsl_clock.o(i.CLOCK_AttachClk) for CLOCK_AttachClk
    clock_config.o(i.BOARD_BootClockFROHF48M) refers to fsl_power_lib.o(i.POWER_SetVoltageForFreq) for POWER_SetVoltageForFreq
    clock_config.o(i.BOARD_BootClockFROHF48M) refers to fsl_clock.o(i.CLOCK_SetFLASHAccessCyclesForFreq) for CLOCK_SetFLASHAccessCyclesForFreq
    clock_config.o(i.BOARD_BootClockFROHF48M) refers to fsl_clock.o(i.CLOCK_SetupFROClocking) for CLOCK_SetupFROClocking
    clock_config.o(i.BOARD_BootClockFROHF48M) refers to fsl_clock.o(i.CLOCK_SetClkDiv) for CLOCK_SetClkDiv
    clock_config.o(i.BOARD_BootClockFROHF48M) refers to system_lpc54114_cm4.o(.data) for SystemCoreClock
    clock_config.o(i.BOARD_BootClockFROHF96M) refers to clock_config.o(i.POWER_DisablePD) for POWER_DisablePD
    clock_config.o(i.BOARD_BootClockFROHF96M) refers to fsl_clock.o(i.CLOCK_AttachClk) for CLOCK_AttachClk
    clock_config.o(i.BOARD_BootClockFROHF96M) refers to fsl_power_lib.o(i.POWER_SetVoltageForFreq) for POWER_SetVoltageForFreq
    clock_config.o(i.BOARD_BootClockFROHF96M) refers to fsl_clock.o(i.CLOCK_SetFLASHAccessCyclesForFreq) for CLOCK_SetFLASHAccessCyclesForFreq
    clock_config.o(i.BOARD_BootClockFROHF96M) refers to fsl_clock.o(i.CLOCK_SetupFROClocking) for CLOCK_SetupFROClocking
    clock_config.o(i.BOARD_BootClockFROHF96M) refers to fsl_clock.o(i.CLOCK_SetClkDiv) for CLOCK_SetClkDiv
    clock_config.o(i.BOARD_BootClockFROHF96M) refers to system_lpc54114_cm4.o(.data) for SystemCoreClock
    mcmgr_internal_core_api_lpc54114.o(i.mcmgr_get_startup_data_lpc54114) refers to fsl_common.o(i.__aeabi_assert) for __aeabi_assert
    mcmgr_internal_core_api_lpc54114.o(i.mcmgr_get_startup_data_lpc54114) refers to mcmgr_internal_core_api_lpc54114.o(i.mcmgr_start_core_lpc54114) for i.mcmgr_start_core_lpc54114
    mcmgr_internal_core_api_lpc54114.o(i.mcmgr_init_lpc54114) refers to mcmgr_internal_core_api_lpc54114.o(i.MAILBOX_Init) for MAILBOX_Init
    mcmgr_internal_core_api_lpc54114.o(i.mcmgr_start_core_lpc54114) refers to fsl_common.o(i.__aeabi_assert) for __aeabi_assert
    mcmgr_internal_core_api_lpc54114.o(.constdata) refers to mcmgr_internal_core_api_lpc54114.o(.conststring) for .conststring
    mcmgr_internal_core_api_lpc54114.o(.constdata) refers to mcmgr_internal_core_api_lpc54114.o(i.mcmgr_init_lpc54114) for mcmgr_init_lpc54114
    mcmgr_internal_core_api_lpc54114.o(.constdata) refers to mcmgr_internal_core_api_lpc54114.o(i.mcmgr_load_app_lpc54114) for mcmgr_load_app_lpc54114
    mcmgr_internal_core_api_lpc54114.o(.constdata) refers to mcmgr_internal_core_api_lpc54114.o(i.mcmgr_start_core_lpc54114) for mcmgr_start_core_lpc54114
    mcmgr_internal_core_api_lpc54114.o(.constdata) refers to mcmgr_internal_core_api_lpc54114.o(i.mcmgr_get_startup_data_lpc54114) for mcmgr_get_startup_data_lpc54114
    mcmgr_internal_core_api_lpc54114.o(.constdata) refers to mcmgr_internal_core_api_lpc54114.o(i.mcmgr_signal_ready_lpc54114) for mcmgr_signal_ready_lpc54114
    mcmgr_internal_core_api_lpc54114.o(.constdata) refers to mcmgr_internal_core_api_lpc54114.o(i.mcmgr_stop_core_lpc54114) for mcmgr_stop_core_lpc54114
    mcmgr_internal_core_api_lpc54114.o(.constdata) refers to mcmgr_internal_core_api_lpc54114.o(i.mcmgr_get_core_property_lpc54114) for mcmgr_get_core_property_lpc54114
    mcmgr_internal_core_api_lpc54114.o(.constdata) refers to mcmgr_internal_core_api_lpc54114.o(i.mcmgr_get_current_core_lpc54114) for mcmgr_get_current_core_lpc54114
    mcmgr.o(i.MCMGR_GetCoreCount) refers to mcmgr_internal_core_api_lpc54114.o(.constdata) for g_mcmgrSystem
    mcmgr.o(i.MCMGR_GetCoreProperty) refers to mcmgr_internal_core_api_lpc54114.o(.constdata) for g_mcmgrSystem
    mcmgr.o(i.MCMGR_GetCurrentCore) refers to mcmgr_internal_core_api_lpc54114.o(.constdata) for g_mcmgrSystem
    mcmgr.o(i.MCMGR_GetStartupData) refers to mcmgr_internal_core_api_lpc54114.o(.constdata) for g_mcmgrSystem
    mcmgr.o(i.MCMGR_Init) refers to mcmgr.o(i.MCMGR_GetCurrentCore) for MCMGR_GetCurrentCore
    mcmgr.o(i.MCMGR_Init) refers to mcmgr_internal_core_api_lpc54114.o(.constdata) for g_mcmgrSystem
    mcmgr.o(i.MCMGR_LoadApp) refers to mcmgr_internal_core_api_lpc54114.o(.constdata) for g_mcmgrSystem
    mcmgr.o(i.MCMGR_MapAddress) refers to mcmgr_internal_core_api_lpc54114.o(.constdata) for g_mcmgrSystem
    mcmgr.o(i.MCMGR_SignalReady) refers to mcmgr_internal_core_api_lpc54114.o(.constdata) for g_mcmgrSystem
    mcmgr.o(i.MCMGR_StartCore) refers to mcmgr_internal_core_api_lpc54114.o(.constdata) for g_mcmgrSystem
    mcmgr.o(i.MCMGR_StopCore) refers to mcmgr_internal_core_api_lpc54114.o(.constdata) for g_mcmgrSystem
    fsl_debug_console.o(i.DbgConsole_Deinit) refers to fsl_usart.o(i.USART_Deinit) for USART_Deinit
    fsl_debug_console.o(i.DbgConsole_Deinit) refers to fsl_debug_console.o(.bss) for s_debugConsole
    fsl_debug_console.o(i.DbgConsole_Getchar) refers to fsl_debug_console.o(.bss) for s_debugConsole
    fsl_debug_console.o(i.DbgConsole_Init) refers to fsl_usart.o(i.USART_GetDefaultConfig) for USART_GetDefaultConfig
    fsl_debug_console.o(i.DbgConsole_Init) refers to fsl_usart.o(i.USART_Init) for USART_Init
    fsl_debug_console.o(i.DbgConsole_Init) refers to fsl_debug_console.o(.bss) for s_debugConsole
    fsl_debug_console.o(i.DbgConsole_Init) refers to fsl_usart.o(i.USART_WriteBlocking) for USART_WriteBlocking
    fsl_debug_console.o(i.DbgConsole_Init) refers to fsl_usart.o(i.USART_ReadBlocking) for USART_ReadBlocking
    fsl_debug_console.o(i.DbgConsole_Printf) refers to fsl_debug_console.o(i.DbgConsole_PrintfFormattedData) for DbgConsole_PrintfFormattedData
    fsl_debug_console.o(i.DbgConsole_Printf) refers to fsl_debug_console.o(.bss) for s_debugConsole
    fsl_debug_console.o(i.DbgConsole_Printf) refers to fsl_debug_console.o(i.DbgConsole_Putchar) for DbgConsole_Putchar
    fsl_debug_console.o(i.DbgConsole_PrintfFormattedData) refers to fsl_debug_console.o(i.DbgConsole_ConvertRadixNumToString) for DbgConsole_ConvertRadixNumToString
    fsl_debug_console.o(i.DbgConsole_PrintfFormattedData) refers to fsl_debug_console.o(i.DbgConsole_PrintfPaddingCharacter) for DbgConsole_PrintfPaddingCharacter
    fsl_debug_console.o(i.DbgConsole_PrintfFormattedData) refers to strlen.o(.text) for strlen
    fsl_debug_console.o(i.DbgConsole_Putchar) refers to fsl_debug_console.o(.bss) for s_debugConsole
    fsl_debug_console.o(i.DbgConsole_Scanf) refers to fsl_debug_console.o(i.DbgConsole_Getchar) for DbgConsole_Getchar
    fsl_debug_console.o(i.DbgConsole_Scanf) refers to fsl_debug_console.o(i.DbgConsole_ScanfFormattedData) for DbgConsole_ScanfFormattedData
    fsl_debug_console.o(i.DbgConsole_Scanf) refers to fsl_debug_console.o(.bss) for s_debugConsole
    fsl_debug_console.o(i.DbgConsole_ScanfFormattedData) refers to fsl_debug_console.o(i.DbgConsole_ScanIgnoreWhiteSpace) for DbgConsole_ScanIgnoreWhiteSpace
    fsl_debug_console.o(i._read) refers to fsl_debug_console.o(.bss) for s_debugConsole
    fsl_debug_console.o(i._write) refers to fsl_debug_console.o(.bss) for s_debugConsole
    app_si70xx.o(i.si7020Measure) refers to fsl_i2c.o(i.I2C_MasterStart) for I2C_MasterStart
    app_si70xx.o(i.si7020Measure) refers to fsl_i2c.o(i.I2C_MasterWriteBlocking) for I2C_MasterWriteBlocking
    app_si70xx.o(i.si7020Measure) refers to fsl_i2c.o(i.I2C_MasterReadBlocking) for I2C_MasterReadBlocking
    app_si70xx.o(i.si7020Measure) refers to fsl_i2c.o(i.I2C_MasterStop) for I2C_MasterStop
    app_si70xx.o(i.si7020Measure) refers to dfltui.o(.text) for __aeabi_ui2d
    app_si70xx.o(i.si7020Measure) refers to ddiv.o(.text) for __aeabi_ddiv
    app_si70xx.o(i.si7020Measure) refers to dmul.o(.text) for __aeabi_dmul
    app_si70xx.o(i.si7020Measure) refers to dadd.o(.text) for __aeabi_dsub
    app_si70xx.o(i.si7020Measure) refers to app_si70xx.o(.data) for si70xx_buff
    app_si70xx.o(i.si70xxInit) refers to app_si70xx.o(i.IOCON_PinMuxSet) for IOCON_PinMuxSet
    app_si70xx.o(i.si70xxInit) refers to fsl_clock.o(i.CLOCK_AttachClk) for CLOCK_AttachClk
    app_si70xx.o(i.si70xxInit) refers to fsl_reset.o(i.RESET_PeripheralReset) for RESET_PeripheralReset
    app_si70xx.o(i.si70xxInit) refers to fsl_i2c.o(i.I2C_MasterGetDefaultConfig) for I2C_MasterGetDefaultConfig
    app_si70xx.o(i.si70xxInit) refers to fsl_i2c.o(i.I2C_MasterInit) for I2C_MasterInit
    app_interrupt.o(i.SysTick_Handler) refers to app_interrupt.o(.data) for dwSysTicks
    app_interrupt.o(i.SysTick_Handler) refers to app_dev_ctrl.o(.data) for deltms
    app_dev_ctrl.o(i.add_temp_handle) refers to app_dev_ctrl.o(i.write_to_flash) for write_to_flash
    app_dev_ctrl.o(i.add_temp_handle) refers to app_key.o(.bss) for dev
    app_dev_ctrl.o(i.add_temp_handle) refers to app_lcd.o(.data) for flash_struct
    app_dev_ctrl.o(i.add_temp_handle) refers to app_dev_ctrl.o(.data) for save_dev_flag
    app_dev_ctrl.o(i.app_init) refers to app_key.o(.bss) for temperature_c
    app_dev_ctrl.o(i.auto_speed_display) refers to app_lcd.o(i.display_signal) for display_signal
    app_dev_ctrl.o(i.auto_speed_display) refers to app_lcd.o(i.clr_display_signal) for clr_display_signal
    app_dev_ctrl.o(i.auto_speed_display) refers to app_lcd.o(.data) for auto_speed
    app_dev_ctrl.o(i.backlight_ctrl) refers to app_lcd.o(i.backligt_on) for backligt_on
    app_dev_ctrl.o(i.backlight_ctrl) refers to app_lcd.o(i.backlight_off) for backlight_off
    app_dev_ctrl.o(i.backlight_ctrl) refers to app_key.o(.bss) for temperature_c
    app_dev_ctrl.o(i.beep_ctrl) refers to app_beep.o(i.beep_off) for beep_off
    app_dev_ctrl.o(i.beep_ctrl) refers to app_key.o(.data) for cap_key
    app_dev_ctrl.o(i.check_alive) refers to app_dev_ctrl.o(i.check_alive0) for check_alive0
    app_dev_ctrl.o(i.check_alive) refers to app_lcd.o(i.display_signal) for display_signal
    app_dev_ctrl.o(i.check_alive) refers to fsl_debug_console.o(i.DbgConsole_Printf) for DbgConsole_Printf
    app_dev_ctrl.o(i.check_alive) refers to app_lcd.o(i.clr_display_signal) for clr_display_signal
    app_dev_ctrl.o(i.check_alive) refers to app_dev_ctrl.o(.data) for counter
    app_dev_ctrl.o(i.check_alive0) refers to protocol_smart.o(i.code_local_frame) for code_local_frame
    app_dev_ctrl.o(i.check_alive0) refers to app_dev_ctrl.o(i.uart_write) for uart_write
    app_dev_ctrl.o(i.check_alive0) refers to app_dev_ctrl.o(.data) for reg
    app_dev_ctrl.o(i.check_alive0) refers to app_dev_ctrl.o(.bss) for g_frame_buffer
    app_dev_ctrl.o(i.dec_temp_handle) refers to app_dev_ctrl.o(i.write_to_flash) for write_to_flash
    app_dev_ctrl.o(i.dec_temp_handle) refers to app_key.o(.bss) for dev
    app_dev_ctrl.o(i.dec_temp_handle) refers to app_lcd.o(.data) for flash_struct
    app_dev_ctrl.o(i.dec_temp_handle) refers to app_dev_ctrl.o(.data) for save_dev_flag
    app_dev_ctrl.o(i.dev_init) refers to app_spiflash.o(i.mx25r_cmd_read) for mx25r_cmd_read
    app_dev_ctrl.o(i.dev_init) refers to fsl_debug_console.o(i.DbgConsole_Printf) for DbgConsole_Printf
    app_dev_ctrl.o(i.dev_init) refers to memseta.o(.text) for __aeabi_memclr4
    app_dev_ctrl.o(i.dev_init) refers to app_dev_ctrl.o(i.temp_param_init) for temp_param_init
    app_dev_ctrl.o(i.dev_init) refers to app_spiflash.o(i.mx25r_cmd_wren) for mx25r_cmd_wren
    app_dev_ctrl.o(i.dev_init) refers to app_spiflash.o(i.mx25r_cmd_sector_erase) for mx25r_cmd_sector_erase
    app_dev_ctrl.o(i.dev_init) refers to app_spiflash.o(i.mx25r_cmd_write) for mx25r_cmd_write
    app_dev_ctrl.o(i.dev_init) refers to app_spiflash.o(i.mx25r_cmd_wrdi) for mx25r_cmd_wrdi
    app_dev_ctrl.o(i.dev_init) refers to smart_plc.o(i.chg_state) for chg_state
    app_dev_ctrl.o(i.dev_init) refers to auto_report.o(i.auto_report_init) for auto_report_init
    app_dev_ctrl.o(i.dev_init) refers to app_key.o(.bss) for dev
    app_dev_ctrl.o(i.dev_init) refers to app_spiflash.o(.bss) for mx25r
    app_dev_ctrl.o(i.dev_type_get) refers to app_dev_ctrl.o(.constdata) for dev_type
    app_dev_ctrl.o(i.dev_ver_cmp) refers to strlen.o(.text) for strlen
    app_dev_ctrl.o(i.dev_ver_cmp) refers to memcmp.o(.text) for memcmp
    app_dev_ctrl.o(i.dev_ver_cmp) refers to app_dev_ctrl.o(.data) for softver
    app_dev_ctrl.o(i.dev_ver_get) refers to strlen.o(.text) for strlen
    app_dev_ctrl.o(i.dev_ver_get) refers to memmovea.o(.text) for __aeabi_memcpy
    app_dev_ctrl.o(i.dev_ver_get) refers to app_dev_ctrl.o(.data) for softver
    app_dev_ctrl.o(i.mode_handle) refers to app_dev_ctrl.o(i.write_to_flash) for write_to_flash
    app_dev_ctrl.o(i.mode_handle) refers to app_key.o(.bss) for dev
    app_dev_ctrl.o(i.mode_handle) refers to app_lcd.o(.data) for flash_struct
    app_dev_ctrl.o(i.mode_handle) refers to app_dev_ctrl.o(.data) for save_dev_flag
    app_dev_ctrl.o(i.on_off_handle) refers to app_dev_ctrl.o(i.speed_realy_ctrl) for speed_realy_ctrl
    app_dev_ctrl.o(i.on_off_handle) refers to app_realy.o(i.relay_ctrl) for relay_ctrl
    app_dev_ctrl.o(i.on_off_handle) refers to app_lcd.o(i.backlight_off) for backlight_off
    app_dev_ctrl.o(i.on_off_handle) refers to app_dev_ctrl.o(i.write_to_flash) for write_to_flash
    app_dev_ctrl.o(i.on_off_handle) refers to app_key.o(.bss) for dev
    app_dev_ctrl.o(i.on_off_handle) refers to app_lcd.o(.data) for flash_struct
    app_dev_ctrl.o(i.on_off_handle) refers to app_dev_ctrl.o(.data) for save_dev_flag
    app_dev_ctrl.o(i.on_uart_rxchar) refers to smart_plc.o(i.uart_peek) for uart_peek
    app_dev_ctrl.o(i.on_uart_rxchar) refers to protocol_smart.o(i.get_smart_frame) for get_smart_frame
    app_dev_ctrl.o(i.on_uart_rxchar) refers to fsl_debug_console.o(i.DbgConsole_Printf) for DbgConsole_Printf
    app_dev_ctrl.o(i.on_uart_rxchar) refers to smart_plc.o(i.clear_uart) for clear_uart
    app_dev_ctrl.o(i.on_uart_rxchar) refers to memmovea.o(.text) for __aeabi_memmove
    app_dev_ctrl.o(i.on_uart_rxchar) refers to smart_plc.o(i.plc_machine_opt) for plc_machine_opt
    app_dev_ctrl.o(i.on_uart_rxchar) refers to app_dev_ctrl.o(.bss) for g_frame_buffer
    app_dev_ctrl.o(i.plc_communication_handle) refers to app_lcd.o(i.clr_display_signal) for clr_display_signal
    app_dev_ctrl.o(i.plc_communication_handle) refers to app_lcd.o(i.display_signal) for display_signal
    app_dev_ctrl.o(i.plc_communication_handle) refers to app_dev_ctrl.o(.data) for plc_alive_flag
    app_dev_ctrl.o(i.showTempHumi) refers to app_si70xx.o(i.si7020Measure) for si7020Measure
    app_dev_ctrl.o(i.showTempHumi) refers to dfixui.o(.text) for __aeabi_d2uiz
    app_dev_ctrl.o(i.showTempHumi) refers to app_lcd.o(i.num_display_ctrl) for num_display_ctrl
    app_dev_ctrl.o(i.showTempHumi) refers to app_lcd.o(i.display_signal) for display_signal
    app_dev_ctrl.o(i.showTempHumi) refers to app_si70xx.o(.bss) for si7020_data
    app_dev_ctrl.o(i.speed_realy_ctrl) refers to app_realy.o(i.relay_ctrl) for relay_ctrl
    app_dev_ctrl.o(i.state_machine) refers to smart_plc.o(i.plc_machine_opt) for plc_machine_opt
    app_dev_ctrl.o(i.sys_tick) refers to app_dev_ctrl.o(.data) for deltms
    app_dev_ctrl.o(i.system_init) refers to smart_plc.o(i.chg_state) for chg_state
    app_dev_ctrl.o(i.system_init) refers to smart_plc.o(.data) for plc_state
    app_dev_ctrl.o(i.system_init) refers to app_dev_ctrl.o(.data) for reg
    app_dev_ctrl.o(i.system_init) refers to app_key.o(.bss) for temperature_c
    app_dev_ctrl.o(i.task_100ms) refers to app_lcd.o(i.buffer2buff) for buffer2buff
    app_dev_ctrl.o(i.task_100ms) refers to app_lcd.o(i.update_lcd_data) for update_lcd_data
    app_dev_ctrl.o(i.task_100ms) refers to app_lcd.o(i.lcdReload) for lcdReload
    app_dev_ctrl.o(i.task_100ms) refers to app_lcd.o(i.temp_display_flash) for temp_display_flash
    app_dev_ctrl.o(i.task_100ms) refers to app_dev_ctrl.o(i.beep_ctrl) for beep_ctrl
    app_dev_ctrl.o(i.task_100ms) refers to app_dev_ctrl.o(i.backlight_ctrl) for backlight_ctrl
    app_dev_ctrl.o(i.task_100ms) refers to smart_plc.o(i.uart_tick_hook) for uart_tick_hook
    app_dev_ctrl.o(i.task_100ms) refers to app_lcd.o(.data) for lcd_buffer
    app_dev_ctrl.o(i.task_100ms) refers to app_dev_ctrl.o(.data) for task_monitor
    app_dev_ctrl.o(i.task_20ms) refers to app_key.o(i.key_scan) for key_scan
    app_dev_ctrl.o(i.task_20ms) refers to app_lcd.o(i.buffer2buff) for buffer2buff
    app_dev_ctrl.o(i.task_20ms) refers to app_lcd.o(i.lcdReload) for lcdReload
    app_dev_ctrl.o(i.task_20ms) refers to app_lcd.o(.data) for lcd_buffer
    app_dev_ctrl.o(i.task_handle) refers to app_dev_ctrl.o(.data) for tasks
    app_dev_ctrl.o(i.task_sec) refers to hello_world_core0.o(i.read_si7020_data) for read_si7020_data
    app_dev_ctrl.o(i.task_sec) refers to app_dev_ctrl.o(i.temp_ctrl_realy) for temp_ctrl_realy
    app_dev_ctrl.o(i.task_sec) refers to app_dev_ctrl.o(i.check_alive) for check_alive
    app_dev_ctrl.o(i.task_sec) refers to auto_report.o(i.auto_report_sec_task) for auto_report_sec_task
    app_dev_ctrl.o(i.task_sec) refers to app_key.o(.bss) for temperature_c
    app_dev_ctrl.o(i.task_sec) refers to smart_plc.o(.data) for plc_state
    app_dev_ctrl.o(i.task_sec) refers to app_lcd.o(.data) for flash_struct
    app_dev_ctrl.o(i.temp_auto_ctrl) refers to app_dev_ctrl.o(i.speed_realy_ctrl) for speed_realy_ctrl
    app_dev_ctrl.o(i.temp_auto_ctrl) refers to app_realy.o(i.relay_ctrl) for relay_ctrl
    app_dev_ctrl.o(i.temp_auto_ctrl) refers to app_key.o(.bss) for dev
    app_dev_ctrl.o(i.temp_auto_ctrl) refers to app_lcd.o(.data) for temp
    app_dev_ctrl.o(i.temp_ctrl_realy) refers to app_realy.o(i.relay_ctrl) for relay_ctrl
    app_dev_ctrl.o(i.temp_ctrl_realy) refers to app_dev_ctrl.o(i.speed_realy_ctrl) for speed_realy_ctrl
    app_dev_ctrl.o(i.temp_ctrl_realy) refers to app_dev_ctrl.o(i.win_speed_ctrl_realy) for win_speed_ctrl_realy
    app_dev_ctrl.o(i.temp_ctrl_realy) refers to app_key.o(.bss) for temperature_c
    app_dev_ctrl.o(i.temp_ctrl_realy) refers to app_dev_ctrl.o(.data) for low_temp_flag
    app_dev_ctrl.o(i.temp_ctrl_realy) refers to app_lcd.o(.data) for auto_speed
    app_dev_ctrl.o(i.temp_param_init) refers to app_key.o(.bss) for dev
    app_dev_ctrl.o(i.temp_param_init) refers to app_dev_ctrl.o(.constdata) for sn
    app_dev_ctrl.o(i.temp_param_init) refers to app_lcd.o(.data) for flash_struct
    app_dev_ctrl.o(i.uart_write) refers to alloter.o(i.put_chn_bytes) for put_chn_bytes
    app_dev_ctrl.o(i.uart_write) refers to fsl_debug_console.o(i.DbgConsole_Printf) for DbgConsole_Printf
    app_dev_ctrl.o(i.uart_write) refers to smart_plc.o(i.uart_pop_tx) for uart_pop_tx
    app_dev_ctrl.o(i.uart_write) refers to fsl_usart.o(i.USART_WriteBlocking) for USART_WriteBlocking
    app_dev_ctrl.o(i.uart_write) refers to smart_plc.o(.bss) for uart_infor
    app_dev_ctrl.o(i.win_speed_ctrl_realy) refers to app_dev_ctrl.o(i.speed_realy_ctrl) for speed_realy_ctrl
    app_dev_ctrl.o(i.win_speed_ctrl_realy) refers to app_realy.o(i.relay_ctrl) for relay_ctrl
    app_dev_ctrl.o(i.win_speed_ctrl_realy) refers to app_dev_ctrl.o(i.temp_auto_ctrl) for temp_auto_ctrl
    app_dev_ctrl.o(i.win_speed_handle) refers to app_dev_ctrl.o(i.write_to_flash) for write_to_flash
    app_dev_ctrl.o(i.win_speed_handle) refers to app_key.o(.bss) for dev
    app_dev_ctrl.o(i.win_speed_handle) refers to app_lcd.o(.data) for flash_struct
    app_dev_ctrl.o(i.win_speed_handle) refers to app_dev_ctrl.o(.data) for save_dev_flag
    app_dev_ctrl.o(i.write_to_flash) refers to app_spiflash.o(i.mx25r_cmd_wren) for mx25r_cmd_wren
    app_dev_ctrl.o(i.write_to_flash) refers to app_spiflash.o(i.mx25r_cmd_sector_erase) for mx25r_cmd_sector_erase
    app_dev_ctrl.o(i.write_to_flash) refers to app_spiflash.o(i.mx25r_cmd_write) for mx25r_cmd_write
    app_dev_ctrl.o(i.write_to_flash) refers to app_spiflash.o(i.mx25r_cmd_wrdi) for mx25r_cmd_wrdi
    app_dev_ctrl.o(i.write_to_flash) refers to app_spiflash.o(.bss) for mx25r
    app_dev_ctrl.o(i.write_to_flash) refers to app_key.o(.bss) for dev
    app_dev_ctrl.o(.data) refers to app_dev_ctrl.o(.conststring) for .conststring
    app_dev_ctrl.o(.data) refers to app_dev_ctrl.o(i.on_uart_rxchar) for on_uart_rxchar
    app_dev_ctrl.o(.data) refers to app_dev_ctrl.o(i.sys_tick) for sys_tick
    app_dev_ctrl.o(.data) refers to app_dev_ctrl.o(i.task_20ms) for task_20ms
    app_dev_ctrl.o(.data) refers to app_dev_ctrl.o(i.task_100ms) for task_100ms
    app_dev_ctrl.o(.data) refers to app_dev_ctrl.o(i.task_sec) for task_sec
    app_dev_ctrl.o(.data) refers to app_dev_ctrl.o(i.task_key) for task_key
    app_dev_ctrl.o(.data) refers to app_dev_ctrl.o(i.state_machine) for state_machine
    app_lcd.o(i.backlight_init) refers to app_lcd.o(i.IOCON_PinMuxSet) for IOCON_PinMuxSet
    app_lcd.o(i.bu9796Init) refers to fsl_clock.o(i.CLOCK_AttachClk) for CLOCK_AttachClk
    app_lcd.o(i.bu9796Init) refers to fsl_reset.o(i.RESET_PeripheralReset) for RESET_PeripheralReset
    app_lcd.o(i.bu9796Init) refers to app_lcd.o(i.IOCON_PinMuxSet) for IOCON_PinMuxSet
    app_lcd.o(i.bu9796Init) refers to fsl_i2c.o(i.I2C_MasterGetDefaultConfig) for I2C_MasterGetDefaultConfig
    app_lcd.o(i.bu9796Init) refers to fsl_i2c.o(i.I2C_MasterInit) for I2C_MasterInit
    app_lcd.o(i.bu9796SoftInit) refers to app_lcd.o(i.bu9796WriteByte) for bu9796WriteByte
    app_lcd.o(i.bu9796SoftInit) refers to app_lcd.o(i.displayOn) for displayOn
    app_lcd.o(i.bu9796SoftInit) refers to app_lcd.o(.constdata) for .constdata
    app_lcd.o(i.bu9796SoftInit) refers to app_lcd.o(.data) for lcd_buf
    app_lcd.o(i.bu9796WriteByte) refers to fsl_i2c.o(i.I2C_MasterStart) for I2C_MasterStart
    app_lcd.o(i.bu9796WriteByte) refers to fsl_i2c.o(i.I2C_MasterWriteBlocking) for I2C_MasterWriteBlocking
    app_lcd.o(i.clrAll) refers to app_lcd.o(i.bu9796WriteByte) for bu9796WriteByte
    app_lcd.o(i.clrAll) refers to app_lcd.o(.constdata) for .constdata
    app_lcd.o(i.clrAll) refers to app_lcd.o(.data) for lcd_buf
    app_lcd.o(i.clr_display_group_sig) refers to app_lcd.o(i.buffer2buff) for buffer2buff
    app_lcd.o(i.clr_display_group_sig) refers to app_lcd.o(.constdata) for sign_table
    app_lcd.o(i.clr_display_group_sig) refers to app_lcd.o(.data) for lcd_buffer
    app_lcd.o(i.clr_display_signal) refers to app_lcd.o(i.buffer2buff) for buffer2buff
    app_lcd.o(i.clr_display_signal) refers to app_lcd.o(.constdata) for sign_table
    app_lcd.o(i.clr_display_signal) refers to app_lcd.o(.data) for lcd_buffer
    app_lcd.o(i.clr_num_display) refers to app_lcd.o(.data) for lcd_buffer
    app_lcd.o(i.clr_position_num) refers to app_lcd.o(i.clr_num_display) for clr_num_display
    app_lcd.o(i.displayOff) refers to app_lcd.o(i.bu9796WriteByte) for bu9796WriteByte
    app_lcd.o(i.displayOn) refers to app_lcd.o(i.bu9796WriteByte) for bu9796WriteByte
    app_lcd.o(i.display_fix_signal) refers to app_lcd.o(i.buffer2buff) for buffer2buff
    app_lcd.o(i.display_fix_signal) refers to app_lcd.o(.constdata) for sign_table
    app_lcd.o(i.display_fix_signal) refers to app_lcd.o(.data) for lcd_buffer
    app_lcd.o(i.display_group_sig) refers to app_lcd.o(i.buffer2buff) for buffer2buff
    app_lcd.o(i.display_group_sig) refers to app_lcd.o(.constdata) for sign_table
    app_lcd.o(i.display_group_sig) refers to app_lcd.o(.data) for lcd_buffer
    app_lcd.o(i.display_signal) refers to app_lcd.o(i.buffer2buff) for buffer2buff
    app_lcd.o(i.display_signal) refers to app_lcd.o(.constdata) for sign_table
    app_lcd.o(i.display_signal) refers to app_lcd.o(.data) for lcd_buffer
    app_lcd.o(i.flash_display_delay) refers to app_lcd.o(.data) for flash_struct
    app_lcd.o(i.lcdReload) refers to app_lcd.o(i.bu9796WriteByte) for bu9796WriteByte
    app_lcd.o(i.lcdReload) refers to app_lcd.o(.constdata) for .constdata
    app_lcd.o(i.lcdReload) refers to app_lcd.o(.data) for lcd_buf
    app_lcd.o(i.mode_sig_display) refers to app_lcd.o(i.display_signal) for display_signal
    app_lcd.o(i.mode_sig_display) refers to app_lcd.o(i.clr_display_signal) for clr_display_signal
    app_lcd.o(i.num_display) refers to app_lcd.o(i.exponentiation) for exponentiation
    app_lcd.o(i.num_display) refers to app_lcd.o(i.num_display_ctrl) for num_display_ctrl
    app_lcd.o(i.num_display_ctrl) refers to app_lcd.o(.data) for lcd_buffer
    app_lcd.o(i.num_display_ctrl) refers to app_lcd.o(.constdata) for digit_table
    app_lcd.o(i.showAll) refers to memseta.o(.text) for __aeabi_memset
    app_lcd.o(i.showAll) refers to app_lcd.o(i.bu9796WriteByte) for bu9796WriteByte
    app_lcd.o(i.showAll) refers to app_lcd.o(.constdata) for .constdata
    app_lcd.o(i.showAll) refers to app_lcd.o(.data) for lcd_buf
    app_lcd.o(i.speed_sig_display) refers to app_lcd.o(i.display_signal) for display_signal
    app_lcd.o(i.speed_sig_display) refers to app_lcd.o(i.clr_display_signal) for clr_display_signal
    app_lcd.o(i.speed_sig_display) refers to app_dev_ctrl.o(i.auto_speed_display) for auto_speed_display
    app_lcd.o(i.temp_display_flash) refers to app_lcd.o(i.clr_num_display) for clr_num_display
    app_lcd.o(i.temp_display_flash) refers to app_lcd.o(i.num_display_ctrl) for num_display_ctrl
    app_lcd.o(i.temp_display_flash) refers to app_lcd.o(i.display_signal) for display_signal
    app_lcd.o(i.temp_display_flash) refers to app_lcd.o(i.clr_display_signal) for clr_display_signal
    app_lcd.o(i.temp_display_flash) refers to app_lcd.o(.data) for flash_struct
    app_lcd.o(i.temp_display_flash) refers to app_key.o(.bss) for dev
    app_lcd.o(i.update_lcd_data) refers to dfixi.o(.text) for __aeabi_d2iz
    app_lcd.o(i.update_lcd_data) refers to dfixui.o(.text) for __aeabi_d2uiz
    app_lcd.o(i.update_lcd_data) refers to app_lcd.o(i.num_display_ctrl) for num_display_ctrl
    app_lcd.o(i.update_lcd_data) refers to cdrcmple.o(.text) for __aeabi_cdrcmple
    app_lcd.o(i.update_lcd_data) refers to app_lcd.o(i.display_signal) for display_signal
    app_lcd.o(i.update_lcd_data) refers to app_lcd.o(i.clr_position_num) for clr_position_num
    app_lcd.o(i.update_lcd_data) refers to app_lcd.o(i.display_group_sig) for display_group_sig
    app_lcd.o(i.update_lcd_data) refers to app_lcd.o(i.speed_sig_display) for speed_sig_display
    app_lcd.o(i.update_lcd_data) refers to app_lcd.o(i.mode_sig_display) for mode_sig_display
    app_lcd.o(i.update_lcd_data) refers to app_lcd.o(i.clr_display_group_sig) for clr_display_group_sig
    app_lcd.o(i.update_lcd_data) refers to app_lcd.o(i.display_fix_signal) for display_fix_signal
    app_lcd.o(i.update_lcd_data) refers to app_lcd.o(i.buffer2buff) for buffer2buff
    app_lcd.o(i.update_lcd_data) refers to app_lcd.o(.data) for flash_struct
    app_lcd.o(i.update_lcd_data) refers to app_si70xx.o(.bss) for si7020_data
    app_lcd.o(i.update_lcd_data) refers to app_key.o(.bss) for temperature_c
    app_spiflash.o(i.flash_transfer_cb) refers to fsl_spi.o(i.SPI_MasterTransferBlocking) for SPI_MasterTransferBlocking
    app_spiflash.o(i.mx25r_cmd_sector_erase) refers to app_spiflash.o(i.mx25r_cmd_wren) for mx25r_cmd_wren
    app_spiflash.o(i.mx25r_cmd_sector_erase) refers to app_spiflash.o(i.mx25r_cmd_rdsr) for mx25r_cmd_rdsr
    app_spiflash.o(i.mx25r_cmd_write) refers to app_spiflash.o(i.mx25r_cmd_wren) for mx25r_cmd_wren
    app_spiflash.o(i.mx25r_cmd_write) refers to app_spiflash.o(i.mx25r_cmd_rdsr) for mx25r_cmd_rdsr
    app_spiflash.o(i.spiflash_init) refers to fsl_clock.o(i.CLOCK_AttachClk) for CLOCK_AttachClk
    app_spiflash.o(i.spiflash_init) refers to fsl_reset.o(i.RESET_PeripheralReset) for RESET_PeripheralReset
    app_spiflash.o(i.spiflash_init) refers to app_spiflash.o(i.IOCON_PinMuxSet) for IOCON_PinMuxSet
    app_spiflash.o(i.spiflash_init) refers to fsl_spi.o(i.SPI_MasterGetDefaultConfig) for SPI_MasterGetDefaultConfig
    app_spiflash.o(i.spiflash_init) refers to fsl_clock.o(i.CLOCK_GetFreq) for CLOCK_GetFreq
    app_spiflash.o(i.spiflash_init) refers to fsl_spi.o(i.SPI_MasterInit) for SPI_MasterInit
    app_spiflash.o(i.spiflash_init) refers to app_spiflash.o(i.mx25r_init) for mx25r_init
    app_spiflash.o(i.spiflash_init) refers to app_spiflash.o(i.mx25r_cmd_rdid) for mx25r_cmd_rdid
    app_spiflash.o(i.spiflash_init) refers to app_spiflash.o(i.flash_transfer_cb) for flash_transfer_cb
    app_spiflash.o(i.spiflash_init) refers to app_spiflash.o(.bss) for mx25r
    app_key.o(i.clear_iss) refers to app_key.o(.data) for key_value_temp
    app_key.o(i.key_init) refers to fsl_inputmux.o(i.INPUTMUX_Init) for INPUTMUX_Init
    app_key.o(i.key_init) refers to fsl_inputmux.o(i.INPUTMUX_AttachSignal) for INPUTMUX_AttachSignal
    app_key.o(i.key_init) refers to fsl_inputmux.o(i.INPUTMUX_Deinit) for INPUTMUX_Deinit
    app_key.o(i.key_init) refers to fsl_pint.o(i.PINT_Init) for PINT_Init
    app_key.o(i.key_init) refers to fsl_pint.o(i.PINT_PinInterruptConfig) for PINT_PinInterruptConfig
    app_key.o(i.key_init) refers to fsl_pint.o(i.PINT_EnableCallback) for PINT_EnableCallback
    app_key.o(i.key_init) refers to app_key.o(i.pint_intr_callback) for pint_intr_callback
    app_key.o(i.key_scan) refers to app_key.o(i.clear_iss) for clear_iss
    app_key.o(i.key_scan) refers to app_beep.o(i.beep_on) for beep_on
    app_key.o(i.key_scan) refers to app_dev_ctrl.o(i.win_speed_handle) for win_speed_handle
    app_key.o(i.key_scan) refers to app_dev_ctrl.o(i.add_temp_handle) for add_temp_handle
    app_key.o(i.key_scan) refers to app_dev_ctrl.o(i.dec_temp_handle) for dec_temp_handle
    app_key.o(i.key_scan) refers to app_dev_ctrl.o(i.mode_handle) for mode_handle
    app_key.o(i.key_scan) refers to app_dev_ctrl.o(i.on_off_handle) for on_off_handle
    app_key.o(i.key_scan) refers to app_key.o(.data) for key_value_table
    app_key.o(i.key_scan) refers to app_key.o(.bss) for dev
    app_key.o(i.pint_intr_callback) refers to app_key.o(i.GPIO_ReadPinInput) for GPIO_ReadPinInput
    app_key.o(i.pint_intr_callback) refers to fsl_debug_console.o(i.DbgConsole_Printf) for DbgConsole_Printf
    app_key.o(i.pint_intr_callback) refers to app_key.o(.constdata) for KEY_GPIO_PIN
    app_key.o(i.pint_intr_callback) refers to app_key.o(.data) for key_value_temp
    app_realy.o(i.realy_init) refers to app_realy.o(i.realy_off) for realy_off
    app_realy.o(i.realy_init) refers to app_realy.o(.constdata) for REALY_GPIO_PORT
    app_realy.o(i.realy_off) refers to app_realy.o(.constdata) for REALY_GPIO_OFF
    app_realy.o(i.realy_on) refers to app_realy.o(.constdata) for REALY_GPIO_ON
    app_realy.o(i.realy_toggle) refers to app_realy.o(.constdata) for REALY_GPIO_PORT
    app_realy.o(i.relay_ctrl) refers to app_realy.o(i.realy_on) for realy_on
    app_realy.o(i.relay_ctrl) refers to app_realy.o(i.realy_off) for realy_off
    app_realy.o(i.relay_ctrl) refers to app_realy.o(i.realy_toggle) for realy_toggle
    app_realy.o(i.relay_ctrl) refers to app_lcd.o(i.display_signal) for display_signal
    app_realy.o(i.relay_ctrl) refers to app_lcd.o(i.clr_display_signal) for clr_display_signal
    app_beep.o(i.beep_init) refers to fsl_clock.o(i.CLOCK_GetFreq) for CLOCK_GetFreq
    app_beep.o(i.beep_init) refers to fsl_sctimer.o(i.SCTIMER_GetDefaultConfig) for SCTIMER_GetDefaultConfig
    app_beep.o(i.beep_init) refers to fsl_sctimer.o(i.SCTIMER_Init) for SCTIMER_Init
    app_beep.o(i.beep_init) refers to fsl_sctimer.o(i.SCTIMER_SetupPwm) for SCTIMER_SetupPwm
    app_beep.o(i.beep_init) refers to app_beep.o(i.SCTIMER_StartTimer) for SCTIMER_StartTimer
    app_beep.o(i.beep_init) refers to app_beep.o(.data) for sctimerClock
    app_beep.o(i.beep_off) refers to fsl_sctimer.o(i.SCTIMER_GetDefaultConfig) for SCTIMER_GetDefaultConfig
    app_beep.o(i.beep_off) refers to fsl_sctimer.o(i.SCTIMER_Init) for SCTIMER_Init
    app_beep.o(i.beep_off) refers to fsl_sctimer.o(i.SCTIMER_SetupPwm) for SCTIMER_SetupPwm
    app_beep.o(i.beep_off) refers to app_beep.o(i.SCTIMER_StartTimer) for SCTIMER_StartTimer
    app_beep.o(i.beep_off) refers to app_beep.o(.data) for sctimerInfo
    app_beep.o(i.beep_on) refers to fsl_sctimer.o(i.SCTIMER_GetDefaultConfig) for SCTIMER_GetDefaultConfig
    app_beep.o(i.beep_on) refers to fsl_sctimer.o(i.SCTIMER_Init) for SCTIMER_Init
    app_beep.o(i.beep_on) refers to fsl_sctimer.o(i.SCTIMER_SetupPwm) for SCTIMER_SetupPwm
    app_beep.o(i.beep_on) refers to app_beep.o(i.SCTIMER_StartTimer) for SCTIMER_StartTimer
    app_beep.o(i.beep_on) refers to app_beep.o(.data) for sctimerInfo
    smart_plc.o(i.FLEXCOMM5_IRQHandler) refers to smart_plc.o(i.uart_push_rx) for uart_push_rx
    smart_plc.o(i.FLEXCOMM5_IRQHandler) refers to smart_plc.o(i.uart_rx_hook) for uart_rx_hook
    smart_plc.o(i.USART5_GetFreq) refers to fsl_clock.o(i.CLOCK_GetFreq) for CLOCK_GetFreq
    smart_plc.o(i.check_sole_encode) refers to utils.o(i.is_all_xx) for is_all_xx
    smart_plc.o(i.check_sole_encode) refers to fsl_debug_console.o(i.DbgConsole_Printf) for DbgConsole_Printf
    smart_plc.o(i.check_sole_encode) refers to app_key.o(.bss) for dev
    smart_plc.o(i.chg_state) refers to smart_plc.o(i.get_plc_state) for get_plc_state
    smart_plc.o(i.chg_state) refers to smart_plc.o(.data) for plc_state
    smart_plc.o(i.chg_state) refers to app_dev_ctrl.o(.data) for task_monitor
    smart_plc.o(i.clear_uart) refers to smart_plc.o(i.empty_a_chn_slot) for empty_a_chn_slot
    smart_plc.o(i.clear_uart) refers to smart_plc.o(.bss) for uart_infor
    smart_plc.o(i.do_plc_register) refers to smart_plc.o(i.send_local_frame) for send_local_frame
    smart_plc.o(i.do_plc_register) refers to fsl_debug_console.o(i.DbgConsole_Printf) for DbgConsole_Printf
    smart_plc.o(i.do_plc_register) refers to app_dev_ctrl.o(.data) for reg
    smart_plc.o(i.do_set_unlink) refers to smart_plc.o(i.send_local_frame) for send_local_frame
    smart_plc.o(i.do_set_unlink) refers to fsl_debug_console.o(i.DbgConsole_Printf) for DbgConsole_Printf
    smart_plc.o(i.empty_a_chn_slot) refers to alloter.o(i.get_chn_bytes) for get_chn_bytes
    smart_plc.o(i.frame_handle) refers to utils.o(i.is_all_xx) for is_all_xx
    smart_plc.o(i.frame_handle) refers to smart_plc.o(i.local_frame_opt) for local_frame_opt
    smart_plc.o(i.frame_handle) refers to fsl_debug_console.o(i.DbgConsole_Printf) for DbgConsole_Printf
    smart_plc.o(i.frame_handle) refers to smart_plc.o(i.remote_frame_opt) for remote_frame_opt
    smart_plc.o(i.frame_handle) refers to smart_plc.o(i.set_ret_frame) for set_ret_frame
    smart_plc.o(i.frame_handle) refers to app_dev_ctrl.o(i.uart_write) for uart_write
    smart_plc.o(i.get_id) refers to smart_plc.o(i.send_local_frame) for send_local_frame
    smart_plc.o(i.get_plc_state) refers to smart_plc.o(.data) for plc_state_slot
    smart_plc.o(i.get_reg) refers to memcmp.o(.text) for memcmp
    smart_plc.o(i.get_reg) refers to smart_plc.o(i.chg_state) for chg_state
    smart_plc.o(i.get_reg) refers to fsl_debug_console.o(i.DbgConsole_Printf) for DbgConsole_Printf
    smart_plc.o(i.get_reg) refers to app_dev_ctrl.o(i.write_to_flash) for write_to_flash
    smart_plc.o(i.get_reg) refers to app_dev_ctrl.o(.data) for reg
    smart_plc.o(i.get_reg) refers to app_key.o(.bss) for dev
    smart_plc.o(i.init_uart_infor) refers to smart_plc.o(.bss) for uart_infor
    smart_plc.o(i.is_gid_equal) refers to utils.o(i.get_le_val) for get_le_val
    smart_plc.o(i.is_gid_equal) refers to auto_report.o(i.get_1byte_bit1_number) for get_1byte_bit1_number
    smart_plc.o(i.is_gid_equal) refers to app_key.o(.bss) for dev
    smart_plc.o(i.is_gid_equal) refers to auto_report.o(.bss) for judge_data
    smart_plc.o(i.local_ack_opt) refers to utils.o(i.is_all_xx) for is_all_xx
    smart_plc.o(i.local_ack_opt) refers to smart_plc.o(i.chg_state) for chg_state
    smart_plc.o(i.local_ack_opt) refers to fsl_debug_console.o(i.DbgConsole_Printf) for DbgConsole_Printf
    smart_plc.o(i.local_ack_opt) refers to smart_plc.o(.data) for plc_state
    smart_plc.o(i.local_frame_opt) refers to smart_plc.o(i.chg_state) for chg_state
    smart_plc.o(i.local_frame_opt) refers to smart_plc.o(i.get_reg) for get_reg
    smart_plc.o(i.local_frame_opt) refers to memcmp.o(.text) for memcmp
    smart_plc.o(i.local_frame_opt) refers to app_dev_ctrl.o(i.write_to_flash) for write_to_flash
    smart_plc.o(i.local_frame_opt) refers to app_key.o(.bss) for dev
    smart_plc.o(i.local_frame_opt) refers to app_dev_ctrl.o(.data) for plc_alive_flag
    smart_plc.o(i.plc_init) refers to pin_mux.o(i.USART5_InitPins) for USART5_InitPins
    smart_plc.o(i.plc_init) refers to smart_plc.o(i.uart5_config) for uart5_config
    smart_plc.o(i.plc_init) refers to smart_plc.o(i.plc_reset_init) for plc_reset_init
    smart_plc.o(i.plc_machine_opt) refers to smart_plc.o(.data) for plc_state
    smart_plc.o(i.rd_gw_aid) refers to smart_plc.o(i.get_id) for get_id
    smart_plc.o(i.rd_gw_aid) refers to fsl_debug_console.o(i.DbgConsole_Printf) for DbgConsole_Printf
    smart_plc.o(i.rd_gw_aid) refers to memcmp.o(.text) for memcmp
    smart_plc.o(i.rd_gw_aid) refers to app_dev_ctrl.o(i.write_to_flash) for write_to_flash
    smart_plc.o(i.rd_gw_aid) refers to app_spiflash.o(i.mx25r_cmd_read) for mx25r_cmd_read
    smart_plc.o(i.rd_gw_aid) refers to smart_plc.o(i.chg_state) for chg_state
    smart_plc.o(i.rd_gw_aid) refers to app_dev_ctrl.o(.bss) for g_frame_buffer
    smart_plc.o(i.rd_gw_aid) refers to app_key.o(.bss) for dev
    smart_plc.o(i.rd_gw_aid) refers to app_spiflash.o(.bss) for mx25r
    smart_plc.o(i.rd_gw_aid) refers to smart_plc.o(.data) for plc_state
    smart_plc.o(i.rd_plc_eid) refers to smart_plc.o(i.check_sole_encode) for check_sole_encode
    smart_plc.o(i.rd_plc_eid) refers to smart_plc.o(i.chg_state) for chg_state
    smart_plc.o(i.rd_plc_eid) refers to fsl_debug_console.o(i.DbgConsole_Printf) for DbgConsole_Printf
    smart_plc.o(i.rd_plc_eid) refers to smart_plc.o(i.get_id) for get_id
    smart_plc.o(i.rd_plc_eid) refers to memcmp.o(.text) for memcmp
    smart_plc.o(i.rd_plc_eid) refers to smart_plc.o(.data) for plc_state
    smart_plc.o(i.rd_plc_eid) refers to app_dev_ctrl.o(.bss) for g_frame_buffer
    smart_plc.o(i.rd_plc_eid) refers to app_key.o(.bss) for dev
    smart_plc.o(i.rd_plc_sid) refers to smart_plc.o(i.get_id) for get_id
    smart_plc.o(i.rd_plc_sid) refers to fsl_debug_console.o(i.DbgConsole_Printf) for DbgConsole_Printf
    smart_plc.o(i.rd_plc_sid) refers to app_spiflash.o(i.mx25r_cmd_read) for mx25r_cmd_read
    smart_plc.o(i.rd_plc_sid) refers to memcmp.o(.text) for memcmp
    smart_plc.o(i.rd_plc_sid) refers to app_dev_ctrl.o(i.write_to_flash) for write_to_flash
    smart_plc.o(i.rd_plc_sid) refers to auto_report.o(i.register_report) for register_report
    smart_plc.o(i.rd_plc_sid) refers to smart_plc.o(i.chg_state) for chg_state
    smart_plc.o(i.rd_plc_sid) refers to app_lcd.o(i.display_signal) for display_signal
    smart_plc.o(i.rd_plc_sid) refers to app_dev_ctrl.o(.bss) for g_frame_buffer
    smart_plc.o(i.rd_plc_sid) refers to app_key.o(.bss) for dev
    smart_plc.o(i.rd_plc_sid) refers to app_spiflash.o(.bss) for mx25r
    smart_plc.o(i.rd_plc_sid) refers to smart_plc.o(.data) for plc_state
    smart_plc.o(i.rd_plc_sid) refers to app_dev_ctrl.o(.data) for plc_alive_flag
    smart_plc.o(i.remote_frame_opt) refers to auto_report.o(i.report_frame_ack) for report_frame_ack
    smart_plc.o(i.remote_frame_opt) refers to auto_report.o(i.clear_equipment_gid_flag) for clear_equipment_gid_flag
    smart_plc.o(i.remote_frame_opt) refers to utils.o(i.is_all_xx) for is_all_xx
    smart_plc.o(i.remote_frame_opt) refers to smart_plc.o(i.set_group_parameter) for set_group_parameter
    smart_plc.o(i.remote_frame_opt) refers to protocol_smart.o(i.do_cmd) for do_cmd
    smart_plc.o(i.reset_plc) refers to smart_plc.o(i.plc_reset_off) for plc_reset_off
    smart_plc.o(i.reset_plc) refers to fsl_debug_console.o(i.DbgConsole_Printf) for DbgConsole_Printf
    smart_plc.o(i.reset_plc) refers to smart_plc.o(i.chg_state) for chg_state
    smart_plc.o(i.reset_plc) refers to smart_plc.o(i.plc_reset_on) for plc_reset_on
    smart_plc.o(i.reset_plc) refers to smart_plc.o(.data) for plc_state
    smart_plc.o(i.send_local_frame) refers to memmovea.o(.text) for __aeabi_memmove
    smart_plc.o(i.send_local_frame) refers to utils.o(i.checksum) for checksum
    smart_plc.o(i.send_local_frame) refers to app_dev_ctrl.o(i.uart_write) for uart_write
    smart_plc.o(i.set_aid) refers to smart_plc.o(i.send_local_frame) for send_local_frame
    smart_plc.o(i.set_aid) refers to fsl_debug_console.o(i.DbgConsole_Printf) for DbgConsole_Printf
    smart_plc.o(i.set_aid) refers to app_key.o(.bss) for dev
    smart_plc.o(i.set_group_parameter) refers to smart_plc.o(i.is_gid_equal) for is_gid_equal
    smart_plc.o(i.set_group_parameter) refers to protocol_smart.o(i.get_option) for get_option
    smart_plc.o(i.set_group_parameter) refers to auto_report.o(.bss) for judge_data
    smart_plc.o(i.set_panid) refers to fsl_debug_console.o(i.DbgConsole_Printf) for DbgConsole_Printf
    smart_plc.o(i.set_panid) refers to smart_plc.o(i.send_local_frame) for send_local_frame
    smart_plc.o(i.set_panid) refers to app_key.o(.bss) for dev
    smart_plc.o(i.set_register) refers to smart_plc.o(i.do_plc_register) for do_plc_register
    smart_plc.o(i.set_register) refers to smart_plc.o(i.local_ack_opt) for local_ack_opt
    smart_plc.o(i.set_register) refers to fsl_debug_console.o(i.DbgConsole_Printf) for DbgConsole_Printf
    smart_plc.o(i.set_register) refers to app_dev_ctrl.o(.bss) for g_frame_buffer
    smart_plc.o(i.set_ret_frame) refers to utils.o(i.checksum) for checksum
    smart_plc.o(i.set_ret_frame) refers to app_key.o(.bss) for dev
    smart_plc.o(i.set_unlink) refers to smart_plc.o(i.do_set_unlink) for do_set_unlink
    smart_plc.o(i.set_unlink) refers to smart_plc.o(i.local_ack_opt) for local_ack_opt
    smart_plc.o(i.set_unlink) refers to fsl_debug_console.o(i.DbgConsole_Printf) for DbgConsole_Printf
    smart_plc.o(i.set_unlink) refers to app_dev_ctrl.o(.bss) for g_frame_buffer
    smart_plc.o(i.uart5_config) refers to fsl_clock.o(i.CLOCK_AttachClk) for CLOCK_AttachClk
    smart_plc.o(i.uart5_config) refers to fsl_reset.o(i.RESET_PeripheralReset) for RESET_PeripheralReset
    smart_plc.o(i.uart5_config) refers to fsl_usart.o(i.USART_GetDefaultConfig) for USART_GetDefaultConfig
    smart_plc.o(i.uart5_config) refers to fsl_clock.o(i.CLOCK_GetFreq) for CLOCK_GetFreq
    smart_plc.o(i.uart5_config) refers to fsl_usart.o(i.USART_Init) for USART_Init
    smart_plc.o(i.uart_peek) refers to alloter.o(i.peek_chn_bytes) for peek_chn_bytes
    smart_plc.o(i.uart_peek) refers to smart_plc.o(.bss) for uart_infor
    smart_plc.o(i.uart_pop_tx) refers to alloter.o(i.get_chn_bytes) for get_chn_bytes
    smart_plc.o(i.uart_pop_tx) refers to smart_plc.o(.bss) for uart_infor
    smart_plc.o(i.uart_push_rx) refers to alloter.o(i.put_chn_bytes) for put_chn_bytes
    smart_plc.o(i.uart_push_rx) refers to smart_plc.o(.bss) for uart_infor
    smart_plc.o(i.uart_rx_hook) refers to smart_plc.o(.bss) for uart_infor
    smart_plc.o(i.uart_rx_hook) refers to app_dev_ctrl.o(.data) for task_monitor
    smart_plc.o(i.uart_tick_hook) refers to smart_plc.o(i.empty_a_chn_slot) for empty_a_chn_slot
    smart_plc.o(i.uart_tick_hook) refers to smart_plc.o(.bss) for uart_infor
    smart_plc.o(i.wait_sec) refers to smart_plc.o(i.chg_state) for chg_state
    smart_plc.o(i.wait_sec) refers to fsl_debug_console.o(i.DbgConsole_Printf) for DbgConsole_Printf
    smart_plc.o(i.wait_sec) refers to smart_plc.o(.data) for plc_state
    smart_plc.o(i.wr_plc_aid) refers to smart_plc.o(i.set_aid) for set_aid
    smart_plc.o(i.wr_plc_aid) refers to smart_plc.o(i.local_ack_opt) for local_ack_opt
    smart_plc.o(i.wr_plc_aid) refers to fsl_debug_console.o(i.DbgConsole_Printf) for DbgConsole_Printf
    smart_plc.o(i.wr_plc_aid) refers to app_dev_ctrl.o(.bss) for g_frame_buffer
    smart_plc.o(i.wr_plc_panid) refers to smart_plc.o(i.set_panid) for set_panid
    smart_plc.o(i.wr_plc_panid) refers to smart_plc.o(i.chg_state) for chg_state
    smart_plc.o(i.wr_plc_panid) refers to fsl_debug_console.o(i.DbgConsole_Printf) for DbgConsole_Printf
    smart_plc.o(i.wr_plc_panid) refers to app_lcd.o(i.display_signal) for display_signal
    smart_plc.o(i.wr_plc_panid) refers to smart_plc.o(i.local_ack_opt) for local_ack_opt
    smart_plc.o(i.wr_plc_panid) refers to app_dev_ctrl.o(.bss) for g_frame_buffer
    smart_plc.o(i.wr_plc_panid) refers to smart_plc.o(.data) for plc_state
    smart_plc.o(i.wr_plc_panid) refers to app_dev_ctrl.o(.data) for plc_alive_flag
    smart_plc.o(.data) refers to smart_plc.o(i.reset_plc) for reset_plc
    smart_plc.o(.data) refers to smart_plc.o(i.rd_plc_eid) for rd_plc_eid
    smart_plc.o(.data) refers to smart_plc.o(i.wr_plc_aid) for wr_plc_aid
    smart_plc.o(.data) refers to smart_plc.o(i.set_unlink) for set_unlink
    smart_plc.o(.data) refers to smart_plc.o(i.wait_sec) for wait_sec
    smart_plc.o(.data) refers to smart_plc.o(i.set_register) for set_register
    smart_plc.o(.data) refers to smart_plc.o(i.wr_plc_panid) for wr_plc_panid
    smart_plc.o(.data) refers to smart_plc.o(i.rd_gw_aid) for rd_gw_aid
    smart_plc.o(.data) refers to smart_plc.o(i.rd_plc_sid) for rd_plc_sid
    smart_plc.o(.data) refers to smart_plc.o(i.frame_handle) for frame_handle
    protocol_smart.o(i.chk_pwd) refers to memcmp.o(.text) for memcmp
    protocol_smart.o(i.chk_pwd) refers to app_key.o(.bss) for dev
    protocol_smart.o(i.code_body) refers to utils.o(i.put_le_val) for put_le_val
    protocol_smart.o(i.code_body) refers to memmovea.o(.text) for __aeabi_memcpy
    protocol_smart.o(i.code_frame) refers to memmovea.o(.text) for __aeabi_memmove
    protocol_smart.o(i.code_frame) refers to fsl_debug_console.o(i.DbgConsole_Printf) for DbgConsole_Printf
    protocol_smart.o(i.code_frame) refers to utils.o(i.checksum) for checksum
    protocol_smart.o(i.code_frame) refers to protocol_smart.o(.data) for _seq
    protocol_smart.o(i.code_local_frame) refers to protocol_smart.o(i.code_frame) for code_frame
    protocol_smart.o(i.code_ret_frame) refers to utils.o(i.checksum) for checksum
    protocol_smart.o(i.do_cmd) refers to memmovea.o(.text) for __aeabi_memmove
    protocol_smart.o(i.do_cmd) refers to protocol_smart.o(i.form_error_body) for form_error_body
    protocol_smart.o(i.do_cmd) refers to protocol_smart.o(i.get_option) for get_option
    protocol_smart.o(i.do_cmd) refers to app_dev_ctrl.o(.bss) for g_frame_buffer
    protocol_smart.o(i.form_error_body) refers to utils.o(i.put_le_val) for put_le_val
    protocol_smart.o(i.get_air_coner_switch) refers to utils.o(i.put_le_val) for put_le_val
    protocol_smart.o(i.get_air_coner_switch) refers to app_key.o(.bss) for dev
    protocol_smart.o(i.get_app_comm_ver) refers to strlen.o(.text) for strlen
    protocol_smart.o(i.get_app_comm_ver) refers to memmovea.o(.text) for __aeabi_memcpy
    protocol_smart.o(i.get_dbg_info) refers to utils.o(i.hex2bcd) for hex2bcd
    protocol_smart.o(i.get_dbg_info) refers to app_key.o(.bss) for dev
    protocol_smart.o(i.get_dev_key) refers to app_key.o(.bss) for dev
    protocol_smart.o(i.get_dev_sn) refers to app_key.o(.bss) for dev
    protocol_smart.o(i.get_dev_soft_ver) refers to strlen.o(.text) for strlen
    protocol_smart.o(i.get_dev_soft_ver) refers to memmovea.o(.text) for __aeabi_memcpy
    protocol_smart.o(i.get_dev_soft_ver) refers to protocol_smart.o(.data) for dev_soft_ver
    protocol_smart.o(i.get_device_type) refers to app_dev_ctrl.o(i.dev_type_get) for dev_type_get
    protocol_smart.o(i.get_low_temp_protect) refers to utils.o(i.put_le_val) for put_le_val
    protocol_smart.o(i.get_low_temp_protect) refers to app_key.o(.bss) for dev
    protocol_smart.o(i.get_mode_ctrl) refers to utils.o(i.put_le_val) for put_le_val
    protocol_smart.o(i.get_mode_ctrl) refers to app_key.o(.bss) for dev
    protocol_smart.o(i.get_option) refers to memcmp.o(.text) for memcmp
    protocol_smart.o(i.get_option) refers to protocol_smart.o(.data) for func_items
    protocol_smart.o(i.get_panel_lock) refers to utils.o(i.put_le_val) for put_le_val
    protocol_smart.o(i.get_panel_lock) refers to app_key.o(.bss) for dev
    protocol_smart.o(i.get_power_on_delay_time) refers to utils.o(i.put_le_val) for put_le_val
    protocol_smart.o(i.get_power_on_delay_time) refers to app_key.o(.bss) for dev
    protocol_smart.o(i.get_report_freq) refers to utils.o(i.put_le_val) for put_le_val
    protocol_smart.o(i.get_report_freq) refers to app_key.o(.bss) for dev
    protocol_smart.o(i.get_report_step) refers to utils.o(i.hex2bcd) for hex2bcd
    protocol_smart.o(i.get_report_step) refers to app_key.o(.bss) for dev
    protocol_smart.o(i.get_report_switch) refers to utils.o(i.put_le_val) for put_le_val
    protocol_smart.o(i.get_report_switch) refers to app_key.o(.bss) for dev
    protocol_smart.o(i.get_sensor_value) refers to dfixi.o(.text) for __aeabi_d2iz
    protocol_smart.o(i.get_sensor_value) refers to utils.o(i.hex2bcd) for hex2bcd
    protocol_smart.o(i.get_sensor_value) refers to app_si70xx.o(.bss) for si7020_data
    protocol_smart.o(i.get_smart_frame) refers to utils.o(i.checksum) for checksum
    protocol_smart.o(i.get_speed_ctrl_mode) refers to utils.o(i.put_le_val) for put_le_val
    protocol_smart.o(i.get_speed_ctrl_mode) refers to app_key.o(.bss) for dev
    protocol_smart.o(i.get_temp_range) refers to utils.o(i.hex2bcd) for hex2bcd
    protocol_smart.o(i.get_temp_range) refers to app_key.o(.bss) for dev
    protocol_smart.o(i.get_temp_set) refers to utils.o(i.hex2bcd) for hex2bcd
    protocol_smart.o(i.get_temp_set) refers to app_key.o(.bss) for dev
    protocol_smart.o(i.get_temp_set_E002) refers to utils.o(i.hex2bcd) for hex2bcd
    protocol_smart.o(i.get_temp_set_E002) refers to app_key.o(.bss) for dev
    protocol_smart.o(i.get_win_speed_ctrl) refers to utils.o(i.put_le_val) for put_le_val
    protocol_smart.o(i.get_win_speed_ctrl) refers to app_key.o(.bss) for dev
    protocol_smart.o(i.set_air_coner_switch) refers to app_dev_ctrl.o(i.write_to_flash) for write_to_flash
    protocol_smart.o(i.set_air_coner_switch) refers to app_key.o(.bss) for dev
    protocol_smart.o(i.set_air_coner_switch) refers to app_dev_ctrl.o(.data) for save_dev_flag
    protocol_smart.o(i.set_dbg_info) refers to utils.o(i.xbcd2hex) for xbcd2hex
    protocol_smart.o(i.set_dbg_info) refers to app_key.o(.bss) for dev
    protocol_smart.o(i.set_dbg_info) refers to app_dev_ctrl.o(.data) for save_dev_flag
    protocol_smart.o(i.set_low_temp_protect) refers to app_dev_ctrl.o(i.write_to_flash) for write_to_flash
    protocol_smart.o(i.set_low_temp_protect) refers to app_key.o(.bss) for dev
    protocol_smart.o(i.set_low_temp_protect) refers to app_dev_ctrl.o(.data) for save_dev_flag
    protocol_smart.o(i.set_mode_ctrl) refers to app_dev_ctrl.o(i.write_to_flash) for write_to_flash
    protocol_smart.o(i.set_mode_ctrl) refers to app_key.o(.bss) for dev
    protocol_smart.o(i.set_mode_ctrl) refers to app_dev_ctrl.o(.data) for save_dev_flag
    protocol_smart.o(i.set_panel_lock) refers to app_dev_ctrl.o(i.write_to_flash) for write_to_flash
    protocol_smart.o(i.set_panel_lock) refers to app_key.o(.bss) for dev
    protocol_smart.o(i.set_panel_lock) refers to app_dev_ctrl.o(.data) for save_dev_flag
    protocol_smart.o(i.set_power_on_delay_time) refers to utils.o(i.get_le_val) for get_le_val
    protocol_smart.o(i.set_power_on_delay_time) refers to app_key.o(.bss) for dev
    protocol_smart.o(i.set_power_on_delay_time) refers to app_dev_ctrl.o(.data) for save_dev_flag
    protocol_smart.o(i.set_report_freq) refers to utils.o(i.get_le_val) for get_le_val
    protocol_smart.o(i.set_report_freq) refers to auto_report.o(i.reload_freq_infor) for reload_freq_infor
    protocol_smart.o(i.set_report_freq) refers to app_dev_ctrl.o(i.write_to_flash) for write_to_flash
    protocol_smart.o(i.set_report_freq) refers to app_key.o(.bss) for dev
    protocol_smart.o(i.set_report_freq) refers to app_dev_ctrl.o(.data) for save_dev_flag
    protocol_smart.o(i.set_report_step) refers to utils.o(i.is_all_bcd) for is_all_bcd
    protocol_smart.o(i.set_report_step) refers to utils.o(i.xbcd2hex) for xbcd2hex
    protocol_smart.o(i.set_report_step) refers to app_dev_ctrl.o(i.write_to_flash) for write_to_flash
    protocol_smart.o(i.set_report_step) refers to app_key.o(.bss) for dev
    protocol_smart.o(i.set_report_switch) refers to utils.o(i.put_le_val) for put_le_val
    protocol_smart.o(i.set_report_switch) refers to app_dev_ctrl.o(i.write_to_flash) for write_to_flash
    protocol_smart.o(i.set_report_switch) refers to app_key.o(.bss) for dev
    protocol_smart.o(i.set_report_switch) refers to app_dev_ctrl.o(.data) for save_dev_flag
    protocol_smart.o(i.set_speed_ctrl_mode) refers to app_dev_ctrl.o(i.write_to_flash) for write_to_flash
    protocol_smart.o(i.set_speed_ctrl_mode) refers to app_key.o(.bss) for dev
    protocol_smart.o(i.set_speed_ctrl_mode) refers to app_dev_ctrl.o(.data) for save_dev_flag
    protocol_smart.o(i.set_temp_range) refers to utils.o(i.xbcd2hex) for xbcd2hex
    protocol_smart.o(i.set_temp_range) refers to app_dev_ctrl.o(i.write_to_flash) for write_to_flash
    protocol_smart.o(i.set_temp_range) refers to app_key.o(.bss) for dev
    protocol_smart.o(i.set_temp_range) refers to app_dev_ctrl.o(.data) for save_dev_flag
    protocol_smart.o(i.set_temp_set) refers to utils.o(i.xbcd2hex) for xbcd2hex
    protocol_smart.o(i.set_temp_set) refers to app_dev_ctrl.o(i.write_to_flash) for write_to_flash
    protocol_smart.o(i.set_temp_set) refers to app_key.o(.bss) for dev
    protocol_smart.o(i.set_temp_set) refers to app_dev_ctrl.o(.data) for save_dev_flag
    protocol_smart.o(i.set_temp_set_E002) refers to utils.o(i.xbcd2hex) for xbcd2hex
    protocol_smart.o(i.set_temp_set_E002) refers to app_dev_ctrl.o(i.write_to_flash) for write_to_flash
    protocol_smart.o(i.set_temp_set_E002) refers to app_key.o(.bss) for dev
    protocol_smart.o(i.set_temp_set_E002) refers to app_dev_ctrl.o(.data) for save_dev_flag
    protocol_smart.o(i.set_win_speed_ctrl) refers to app_dev_ctrl.o(i.write_to_flash) for write_to_flash
    protocol_smart.o(i.set_win_speed_ctrl) refers to app_key.o(.bss) for dev
    protocol_smart.o(i.set_win_speed_ctrl) refers to app_dev_ctrl.o(.data) for save_dev_flag
    protocol_smart.o(.data) refers to protocol_smart.o(.conststring) for .conststring
    protocol_smart.o(.data) refers to protocol_smart.o(i.get_device_type) for get_device_type
    protocol_smart.o(.data) refers to protocol_smart.o(i.get_app_comm_ver) for get_app_comm_ver
    protocol_smart.o(.data) refers to protocol_smart.o(i.get_dev_soft_ver) for get_dev_soft_ver
    protocol_smart.o(.data) refers to protocol_smart.o(i.get_dev_key) for get_dev_key
    protocol_smart.o(.data) refers to protocol_smart.o(i.get_dev_sn) for get_dev_sn
    protocol_smart.o(.data) refers to protocol_smart.o(i.chk_pwd) for chk_pwd
    protocol_smart.o(.data) refers to protocol_smart.o(i.get_report_switch) for get_report_switch
    protocol_smart.o(.data) refers to protocol_smart.o(i.set_report_switch) for set_report_switch
    protocol_smart.o(.data) refers to protocol_smart.o(i.get_temp_set) for get_temp_set
    protocol_smart.o(.data) refers to protocol_smart.o(i.set_temp_set) for set_temp_set
    protocol_smart.o(.data) refers to protocol_smart.o(i.get_temp_range) for get_temp_range
    protocol_smart.o(.data) refers to protocol_smart.o(i.set_temp_range) for set_temp_range
    protocol_smart.o(.data) refers to protocol_smart.o(i.get_low_temp_protect) for get_low_temp_protect
    protocol_smart.o(.data) refers to protocol_smart.o(i.set_low_temp_protect) for set_low_temp_protect
    protocol_smart.o(.data) refers to protocol_smart.o(i.get_win_speed_ctrl) for get_win_speed_ctrl
    protocol_smart.o(.data) refers to protocol_smart.o(i.set_win_speed_ctrl) for set_win_speed_ctrl
    protocol_smart.o(.data) refers to protocol_smart.o(i.get_mode_ctrl) for get_mode_ctrl
    protocol_smart.o(.data) refers to protocol_smart.o(i.set_mode_ctrl) for set_mode_ctrl
    protocol_smart.o(.data) refers to protocol_smart.o(i.get_air_coner_switch) for get_air_coner_switch
    protocol_smart.o(.data) refers to protocol_smart.o(i.set_air_coner_switch) for set_air_coner_switch
    protocol_smart.o(.data) refers to protocol_smart.o(i.get_panel_lock) for get_panel_lock
    protocol_smart.o(.data) refers to protocol_smart.o(i.set_panel_lock) for set_panel_lock
    protocol_smart.o(.data) refers to protocol_smart.o(i.get_sensor_value) for get_sensor_value
    protocol_smart.o(.data) refers to protocol_smart.o(i.get_report_step) for get_report_step
    protocol_smart.o(.data) refers to protocol_smart.o(i.set_report_step) for set_report_step
    protocol_smart.o(.data) refers to protocol_smart.o(i.get_report_freq) for get_report_freq
    protocol_smart.o(.data) refers to protocol_smart.o(i.set_report_freq) for set_report_freq
    protocol_smart.o(.data) refers to protocol_smart.o(i.get_power_on_delay_time) for get_power_on_delay_time
    protocol_smart.o(.data) refers to protocol_smart.o(i.set_power_on_delay_time) for set_power_on_delay_time
    protocol_smart.o(.data) refers to protocol_smart.o(i.get_dbg_info) for get_dbg_info
    protocol_smart.o(.data) refers to protocol_smart.o(i.set_dbg_info) for set_dbg_info
    protocol_smart.o(.data) refers to protocol_smart.o(i.get_temp_set_E002) for get_temp_set_E002
    protocol_smart.o(.data) refers to protocol_smart.o(i.set_temp_set_E002) for set_temp_set_E002
    protocol_smart.o(.data) refers to protocol_smart.o(i.get_speed_ctrl_mode) for get_speed_ctrl_mode
    protocol_smart.o(.data) refers to protocol_smart.o(i.set_speed_ctrl_mode) for set_speed_ctrl_mode
    auto_report.o(i.actor_alarm_data_init) refers to auto_report_app.o(i.init_relay_data) for init_relay_data
    auto_report.o(i.actor_alarm_data_init) refers to auto_report_app.o(i.init_alarm_data) for init_alarm_data
    auto_report.o(i.auto_report_init) refers to auto_report_app.o(i.init_relay_data) for init_relay_data
    auto_report.o(i.auto_report_init) refers to auto_report_app.o(i.init_alarm_data) for init_alarm_data
    auto_report.o(i.auto_report_init) refers to auto_report_app.o(i.init_sensor_data) for init_sensor_data
    auto_report.o(i.auto_report_init) refers to auto_report.o(i.get_min_freq) for get_min_freq
    auto_report.o(i.auto_report_init) refers to auto_report.o(i.get_different_delay_time) for get_different_delay_time
    auto_report.o(i.auto_report_init) refers to auto_report.o(i.report_alloter_init) for report_alloter_init
    auto_report.o(i.auto_report_init) refers to auto_report.o(.bss) for delay_data
    auto_report.o(i.auto_report_init) refers to app_key.o(.bss) for dev
    auto_report.o(i.auto_report_init) refers to auto_report.o(.data) for flags
    auto_report.o(i.auto_report_sec_task) refers to auto_report.o(i.report_time_hook) for report_time_hook
    auto_report.o(i.auto_report_sec_task) refers to auto_report.o(i.judge_process) for judge_process
    auto_report.o(i.auto_report_sec_task) refers to auto_report.o(i.poweron_time_count) for poweron_time_count
    auto_report.o(i.auto_report_sec_task) refers to auto_report.o(i.register_time_count) for register_time_count
    auto_report.o(i.auto_report_sec_task) refers to auto_report.o(i.send_actor_count) for send_actor_count
    auto_report.o(i.auto_report_sec_task) refers to auto_report.o(i.send_fixed_len_count) for send_fixed_len_count
    auto_report.o(i.auto_report_sec_task) refers to auto_report.o(i.send_fixed_fre_count) for send_fixed_fre_count
    auto_report.o(i.auto_report_sec_task) refers to auto_report.o(i.send_alarm_count) for send_alarm_count
    auto_report.o(i.check_actor_data) refers to auto_report.o(i.stop_report) for stop_report
    auto_report.o(i.check_actor_data) refers to auto_report.o(i.start_report) for start_report
    auto_report.o(i.check_actor_data) refers to auto_report_app.o(i.get_report_data_callback) for get_report_data_callback
    auto_report.o(i.check_actor_data) refers to auto_report.o(.bss) for relay_data
    auto_report.o(i.check_actor_data) refers to auto_report.o(.data) for relay_data_bak
    auto_report.o(i.check_alarm_data) refers to auto_report.o(i.stop_report) for stop_report
    auto_report.o(i.check_alarm_data) refers to auto_report.o(i.start_report) for start_report
    auto_report.o(i.check_alarm_data) refers to auto_report_app.o(i.get_report_data_callback) for get_report_data_callback
    auto_report.o(i.check_alarm_data) refers to auto_report.o(.data) for alarm_data
    auto_report.o(i.check_fixed_fre_data) refers to auto_report.o(i.clear_subs) for clear_subs
    auto_report.o(i.check_fixed_fre_data) refers to auto_report.o(i.clear_chn) for clear_chn
    auto_report.o(i.check_fixed_fre_data) refers to fsl_debug_console.o(i.DbgConsole_Printf) for DbgConsole_Printf
    auto_report.o(i.check_fixed_fre_data) refers to auto_report.o(i.stop_report) for stop_report
    auto_report.o(i.check_fixed_fre_data) refers to auto_report.o(i.start_report) for start_report
    auto_report.o(i.check_fixed_fre_data) refers to auto_report_app.o(i.get_report_data_callback) for get_report_data_callback
    auto_report.o(i.check_fixed_fre_data) refers to auto_report.o(.bss) for sensor_data
    auto_report.o(i.check_fixed_len_data) refers to auto_report.o(i.clear_subs) for clear_subs
    auto_report.o(i.check_fixed_len_data) refers to auto_report.o(i.clear_chn) for clear_chn
    auto_report.o(i.check_fixed_len_data) refers to auto_report.o(i.sensor_need_report_or_not) for sensor_need_report_or_not
    auto_report.o(i.check_fixed_len_data) refers to auto_report.o(i.start_report) for start_report
    auto_report.o(i.check_fixed_len_data) refers to auto_report_app.o(i.get_report_data_callback) for get_report_data_callback
    auto_report.o(i.check_fixed_len_data) refers to auto_report.o(i.stop_report) for stop_report
    auto_report.o(i.check_fixed_len_data) refers to auto_report.o(.bss) for sensor_data
    auto_report.o(i.check_fixed_len_data) refers to auto_report.o(.data) for array
    auto_report.o(i.clear_chn) refers to alloter.o(i.get_chn_bytes) for get_chn_bytes
    auto_report.o(i.clear_chn) refers to auto_report.o(.bss) for re_chn
    auto_report.o(i.clear_chn) refers to app_dev_ctrl.o(.bss) for g_frame_buffer
    auto_report.o(i.clear_equipment_gid_flag) refers to auto_report.o(.bss) for judge_data
    auto_report.o(i.clear_subs) refers to auto_report.o(.bss) for subs_data
    auto_report.o(i.find_sub_from_seq) refers to auto_report.o(.bss) for subs_data
    auto_report.o(i.find_sub_from_type) refers to auto_report.o(.bss) for subs_data
    auto_report.o(i.finish_power_on_report) refers to auto_report.o(i.get_chn) for get_chn
    auto_report.o(i.finish_power_on_report) refers to auto_report_app.o(i.report_finish_refresh_infor) for report_finish_refresh_infor
    auto_report.o(i.finish_power_on_report) refers to auto_report.o(i.clear_chn) for clear_chn
    auto_report.o(i.finish_power_on_report) refers to app_dev_ctrl.o(.bss) for g_frame_buffer
    auto_report.o(i.finish_power_on_report) refers to auto_report.o(.data) for flags
    auto_report.o(i.get_chn) refers to alloter.o(i.get_chn_bytes) for get_chn_bytes
    auto_report.o(i.get_chn) refers to auto_report.o(.bss) for re_chn
    auto_report.o(i.get_different_delay_time) refers to auto_report.o(.bss) for delay_data
    auto_report.o(i.get_message_source) refers to utils.o(i.is_all_xx) for is_all_xx
    auto_report.o(i.get_message_source) refers to auto_report.o(i.insert_said_to_queue) for insert_said_to_queue
    auto_report.o(i.get_message_source) refers to auto_report.o(.bss) for judge_data
    auto_report.o(i.get_min_freq) refers to auto_report.o(.bss) for sensor_data
    auto_report.o(i.get_sensor_from_type) refers to auto_report.o(.bss) for sensor_data
    auto_report.o(i.insert_said_to_queue) refers to memcmp.o(.text) for memcmp
    auto_report.o(i.insert_said_to_queue) refers to auto_report.o(.bss) for judge_data
    auto_report.o(i.judge_process) refers to auto_report.o(i.check_actor_data) for check_actor_data
    auto_report.o(i.judge_process) refers to auto_report_app.o(i.init_sensor_data) for init_sensor_data
    auto_report.o(i.judge_process) refers to auto_report.o(i.check_fixed_len_data) for check_fixed_len_data
    auto_report.o(i.judge_process) refers to auto_report.o(i.check_fixed_fre_data) for check_fixed_fre_data
    auto_report.o(i.judge_process) refers to auto_report.o(i.check_alarm_data) for check_alarm_data
    auto_report.o(i.judge_process) refers to auto_report.o(.bss) for judge_data
    auto_report.o(i.local_key_report) refers to auto_report.o(.bss) for judge_data
    auto_report.o(i.peek_chn) refers to alloter.o(i.peek_chn_bytes) for peek_chn_bytes
    auto_report.o(i.peek_chn) refers to auto_report.o(.bss) for re_chn
    auto_report.o(i.poweron_time_count) refers to auto_report.o(i.stop_report) for stop_report
    auto_report.o(i.poweron_time_count) refers to auto_report.o(i.actor_alarm_data_init) for actor_alarm_data_init
    auto_report.o(i.poweron_time_count) refers to auto_report.o(i.send_power_or_register_report) for send_power_or_register_report
    auto_report.o(i.poweron_time_count) refers to auto_report.o(.data) for flags
    auto_report.o(i.poweron_time_count) refers to auto_report.o(.bss) for delay_data
    auto_report.o(i.put_chn) refers to alloter.o(i.put_chn_bytes) for put_chn_bytes
    auto_report.o(i.put_chn) refers to auto_report.o(.bss) for re_chn
    auto_report.o(i.register_report) refers to memseta.o(.text) for __aeabi_memclr4
    auto_report.o(i.register_report) refers to auto_report.o(.bss) for delay_data
    auto_report.o(i.register_report) refers to auto_report.o(.data) for flags
    auto_report.o(i.register_time_count) refers to auto_report.o(i.actor_alarm_data_init) for actor_alarm_data_init
    auto_report.o(i.register_time_count) refers to auto_report.o(i.send_power_or_register_report) for send_power_or_register_report
    auto_report.o(i.register_time_count) refers to auto_report.o(.data) for flags
    auto_report.o(i.register_time_count) refers to auto_report.o(.bss) for delay_data
    auto_report.o(i.reload_freq_infor) refers to auto_report_app.o(i.init_sensor_data) for init_sensor_data
    auto_report.o(i.reload_freq_infor) refers to auto_report.o(i.get_min_freq) for get_min_freq
    auto_report.o(i.reload_freq_infor) refers to auto_report.o(.bss) for delay_data
    auto_report.o(i.report_alloter_init) refers to auto_report.o(.bss) for re_chn
    auto_report.o(i.report_frame_ack) refers to auto_report.o(i.find_sub_from_seq) for find_sub_from_seq
    auto_report.o(i.report_frame_ack) refers to fsl_debug_console.o(i.DbgConsole_Printf) for DbgConsole_Printf
    auto_report.o(i.report_frame_ack) refers to auto_report.o(i.peek_chn) for peek_chn
    auto_report.o(i.report_frame_ack) refers to memcmp.o(.text) for memcmp
    auto_report.o(i.report_frame_ack) refers to auto_report_app.o(i.report_finish_refresh_infor) for report_finish_refresh_infor
    auto_report.o(i.report_frame_ack) refers to auto_report.o(.bss) for judge_data
    auto_report.o(i.report_frame_ack) refers to auto_report.o(.data) for flags
    auto_report.o(i.report_time_hook) refers to auto_report.o(i.get_time_from_trycnt) for get_time_from_trycnt
    auto_report.o(i.report_time_hook) refers to fsl_debug_console.o(i.DbgConsole_Printf) for DbgConsole_Printf
    auto_report.o(i.report_time_hook) refers to auto_report.o(i.send_max_retry) for send_max_retry
    auto_report.o(i.report_time_hook) refers to auto_report.o(i.send_retry) for send_retry
    auto_report.o(i.report_time_hook) refers to auto_report.o(i.stop_report_para) for stop_report_para
    auto_report.o(i.report_time_hook) refers to auto_report.o(.bss) for subs_data
    auto_report.o(i.save_subs_infor) refers to fsl_debug_console.o(i.DbgConsole_Printf) for DbgConsole_Printf
    auto_report.o(i.save_subs_infor) refers to auto_report.o(.bss) for subs_data
    auto_report.o(i.save_subscriber_infor) refers to auto_report.o(i.get_message_source) for get_message_source
    auto_report.o(i.save_subscriber_infor) refers to auto_report.o(.bss) for judge_data
    auto_report.o(i.send_actor_count) refers to auto_report.o(i.send_to_both_subs_gateway) for send_to_both_subs_gateway
    auto_report.o(i.send_actor_count) refers to auto_report.o(i.send_to_only_gateway) for send_to_only_gateway
    auto_report.o(i.send_actor_count) refers to auto_report.o(i.send_to_only_subs) for send_to_only_subs
    auto_report.o(i.send_actor_count) refers to fsl_debug_console.o(i.DbgConsole_Printf) for DbgConsole_Printf
    auto_report.o(i.send_actor_count) refers to auto_report.o(.data) for flags
    auto_report.o(i.send_actor_count) refers to auto_report.o(.bss) for delay_data
    auto_report.o(i.send_alarm_count) refers to auto_report.o(i.send_to_gateway) for send_to_gateway
    auto_report.o(i.send_alarm_count) refers to auto_report.o(.data) for flags
    auto_report.o(i.send_fixed_fre_count) refers to auto_report.o(i.send_to_both_subs_gateway) for send_to_both_subs_gateway
    auto_report.o(i.send_fixed_fre_count) refers to auto_report.o(i.send_to_only_gateway) for send_to_only_gateway
    auto_report.o(i.send_fixed_fre_count) refers to auto_report.o(i.send_to_only_subs) for send_to_only_subs
    auto_report.o(i.send_fixed_fre_count) refers to auto_report.o(.data) for flags
    auto_report.o(i.send_fixed_len_count) refers to auto_report.o(i.send_to_both_subs_gateway) for send_to_both_subs_gateway
    auto_report.o(i.send_fixed_len_count) refers to auto_report.o(i.send_to_only_gateway) for send_to_only_gateway
    auto_report.o(i.send_fixed_len_count) refers to auto_report.o(i.send_to_only_subs) for send_to_only_subs
    auto_report.o(i.send_fixed_len_count) refers to auto_report.o(.data) for flags
    auto_report.o(i.send_max_retry) refers to auto_report.o(i.finish_power_on_report) for finish_power_on_report
    auto_report.o(i.send_over) refers to auto_report.o(.data) for flags
    auto_report.o(i.send_power_or_register_report) refers to auto_report_app.o(i.get_report_data_callback) for get_report_data_callback
    auto_report.o(i.send_power_or_register_report) refers to auto_report.o(i.peek_chn) for peek_chn
    auto_report.o(i.send_power_or_register_report) refers to protocol_smart.o(i.code_frame) for code_frame
    auto_report.o(i.send_power_or_register_report) refers to auto_report.o(i.send_report_frame) for send_report_frame
    auto_report.o(i.send_power_or_register_report) refers to utils.o(i.is_all_xx) for is_all_xx
    auto_report.o(i.send_power_or_register_report) refers to auto_report.o(i.finish_power_on_report) for finish_power_on_report
    auto_report.o(i.send_power_or_register_report) refers to app_dev_ctrl.o(.bss) for g_frame_buffer
    auto_report.o(i.send_power_or_register_report) refers to auto_report.o(.bss) for judge_data
    auto_report.o(i.send_report_frame) refers to utils.o(i.is_all_xx) for is_all_xx
    auto_report.o(i.send_report_frame) refers to auto_report_app.o(i.uart_write_report) for uart_write_report
    auto_report.o(i.send_report_frame) refers to auto_report.o(i.save_subs_infor) for save_subs_infor
    auto_report.o(i.send_retry) refers to auto_report.o(i.find_sub_from_type) for find_sub_from_type
    auto_report.o(i.send_retry) refers to auto_report.o(i.peek_chn) for peek_chn
    auto_report.o(i.send_retry) refers to protocol_smart.o(i.code_frame) for code_frame
    auto_report.o(i.send_retry) refers to auto_report_app.o(i.uart_write_report) for uart_write_report
    auto_report.o(i.send_retry) refers to app_dev_ctrl.o(.bss) for g_frame_buffer
    auto_report.o(i.send_retry) refers to auto_report.o(.bss) for judge_data
    auto_report.o(i.send_to_both_subs_gateway) refers to auto_report.o(i.peek_chn) for peek_chn
    auto_report.o(i.send_to_both_subs_gateway) refers to auto_report.o(i.send_over) for send_over
    auto_report.o(i.send_to_both_subs_gateway) refers to auto_report.o(i.sub_report_or_not) for sub_report_or_not
    auto_report.o(i.send_to_both_subs_gateway) refers to protocol_smart.o(i.code_frame) for code_frame
    auto_report.o(i.send_to_both_subs_gateway) refers to auto_report.o(i.send_report_frame) for send_report_frame
    auto_report.o(i.send_to_both_subs_gateway) refers to fsl_debug_console.o(i.DbgConsole_Printf) for DbgConsole_Printf
    auto_report.o(i.send_to_both_subs_gateway) refers to auto_report.o(.bss) for judge_data
    auto_report.o(i.send_to_both_subs_gateway) refers to app_dev_ctrl.o(.bss) for g_frame_buffer
    auto_report.o(i.send_to_gateway) refers to auto_report.o(i.send_over) for send_over
    auto_report.o(i.send_to_gateway) refers to auto_report.o(i.sub_report_or_not) for sub_report_or_not
    auto_report.o(i.send_to_gateway) refers to auto_report.o(i.peek_chn) for peek_chn
    auto_report.o(i.send_to_gateway) refers to protocol_smart.o(i.code_frame) for code_frame
    auto_report.o(i.send_to_gateway) refers to auto_report.o(i.send_report_frame) for send_report_frame
    auto_report.o(i.send_to_gateway) refers to fsl_debug_console.o(i.DbgConsole_Printf) for DbgConsole_Printf
    auto_report.o(i.send_to_gateway) refers to auto_report.o(.bss) for judge_data
    auto_report.o(i.send_to_gateway) refers to app_dev_ctrl.o(.bss) for g_frame_buffer
    auto_report.o(i.send_to_only_gateway) refers to auto_report.o(i.send_to_gateway) for send_to_gateway
    auto_report.o(i.send_to_only_gateway) refers to auto_report.o(.bss) for judge_data
    auto_report.o(i.send_to_only_subs) refers to auto_report.o(i.send_over) for send_over
    auto_report.o(i.send_to_only_subs) refers to auto_report.o(i.sub_report_or_not) for sub_report_or_not
    auto_report.o(i.send_to_only_subs) refers to auto_report.o(i.peek_chn) for peek_chn
    auto_report.o(i.send_to_only_subs) refers to protocol_smart.o(i.code_frame) for code_frame
    auto_report.o(i.send_to_only_subs) refers to auto_report.o(i.send_report_frame) for send_report_frame
    auto_report.o(i.send_to_only_subs) refers to fsl_debug_console.o(i.DbgConsole_Printf) for DbgConsole_Printf
    auto_report.o(i.send_to_only_subs) refers to auto_report.o(.bss) for judge_data
    auto_report.o(i.send_to_only_subs) refers to app_dev_ctrl.o(.bss) for g_frame_buffer
    auto_report.o(i.sensor_need_report_or_not) refers to fsl_debug_console.o(i.DbgConsole_Printf) for DbgConsole_Printf
    auto_report.o(i.sensor_need_report_or_not) refers to auto_report.o(i.stop_fixed_report_save) for stop_fixed_report_save
    auto_report.o(i.sensor_need_report_or_not) refers to auto_report.o(i.start_fixed_report_save) for start_fixed_report_save
    auto_report.o(i.sensor_need_report_or_not) refers to auto_report.o(i.start_new_report_or_not) for start_new_report_or_not
    auto_report.o(i.sensor_need_report_or_not) refers to auto_report.o(.bss) for sensor_data
    auto_report.o(i.sensor_need_report_or_not) refers to auto_report.o(.data) for flags
    auto_report.o(i.start_fixed_report_save) refers to auto_report.o(.bss) for sensor_data
    auto_report.o(i.start_new_report_or_not) refers to fsl_debug_console.o(i.DbgConsole_Printf) for DbgConsole_Printf
    auto_report.o(i.start_report) refers to auto_report.o(i.get_min_freq) for get_min_freq
    auto_report.o(i.start_report) refers to auto_report.o(.data) for flags
    auto_report.o(i.start_report) refers to auto_report.o(.bss) for delay_data
    auto_report.o(i.stop_fixed_report_save) refers to auto_report.o(.bss) for sensor_data
    auto_report.o(i.stop_fixed_reporting) refers to auto_report.o(.bss) for sensor_data
    auto_report.o(i.stop_report) refers to auto_report.o(i.clear_subs) for clear_subs
    auto_report.o(i.stop_report) refers to auto_report.o(i.clear_chn) for clear_chn
    auto_report.o(i.stop_report) refers to auto_report.o(i.stop_fixed_reporting) for stop_fixed_reporting
    auto_report.o(i.stop_report) refers to auto_report.o(.data) for flags
    auto_report.o(i.stop_report_para) refers to auto_report.o(i.stop_report) for stop_report
    auto_report.o(i.stop_report_para) refers to auto_report.o(.bss) for subs_data
    auto_report.o(i.sub_report_or_not) refers to utils.o(i.is_all_xx) for is_all_xx
    auto_report.o(i.sub_report_or_not) refers to memcmp.o(.text) for memcmp
    auto_report.o(i.sub_report_or_not) refers to auto_report.o(.bss) for judge_data
    auto_report_app.o(i.code_intype_body) refers to memmovea.o(.text) for __aeabi_memcpy
    auto_report_app.o(i.code_intype_body) refers to protocol_smart.o(i.code_body) for code_body
    auto_report_app.o(i.get_report_data_callback) refers to auto_report.o(i.clear_chn) for clear_chn
    auto_report_app.o(i.get_report_data_callback) refers to utils.o(i.hex2bcd) for hex2bcd
    auto_report_app.o(i.get_report_data_callback) refers to auto_report_app.o(i.code_intype_body) for code_intype_body
    auto_report_app.o(i.get_report_data_callback) refers to protocol_smart.o(i.code_body) for code_body
    auto_report_app.o(i.get_report_data_callback) refers to auto_report.o(i.put_chn) for put_chn
    auto_report_app.o(i.get_report_data_callback) refers to fsl_debug_console.o(i.DbgConsole_Printf) for DbgConsole_Printf
    auto_report_app.o(i.get_report_data_callback) refers to app_si70xx.o(.data) for sensor
    auto_report_app.o(i.get_report_data_callback) refers to app_dev_ctrl.o(.bss) for g_frame_buffer
    auto_report_app.o(i.get_report_data_callback) refers to app_dev_ctrl.o(.data) for low_temp_flag
    auto_report_app.o(i.get_report_data_callback) refers to app_lcd.o(.data) for flash_struct
    auto_report_app.o(i.get_report_data_callback) refers to app_key.o(.bss) for dev
    auto_report_app.o(i.get_report_data_callback) refers to auto_report.o(.bss) for judge_data
    auto_report_app.o(i.init_alarm_data) refers to app_dev_ctrl.o(.data) for low_temp_flag
    auto_report_app.o(i.init_alarm_data) refers to auto_report.o(.data) for alarm_data_bak
    auto_report_app.o(i.init_relay_data) refers to app_key.o(.bss) for dev
    auto_report_app.o(i.init_relay_data) refers to auto_report.o(.data) for relay_data_bak
    auto_report_app.o(i.init_relay_data) refers to auto_report.o(.bss) for relay_data
    auto_report_app.o(i.init_sensor_data) refers to auto_report.o(.bss) for sensor_data
    auto_report_app.o(i.init_sensor_data) refers to app_si70xx.o(.data) for sensor
    auto_report_app.o(i.init_sensor_data) refers to app_key.o(.bss) for dev
    auto_report_app.o(i.report_finish_refresh_infor) refers to auto_report_app.o(i.get_sensor_type) for get_sensor_type
    auto_report_app.o(i.report_finish_refresh_infor) refers to auto_report.o(i.get_sensor_from_type) for get_sensor_from_type
    auto_report_app.o(i.report_finish_refresh_infor) refers to utils.o(i.bcd2hex) for bcd2hex
    auto_report_app.o(i.report_finish_refresh_infor) refers to auto_report.o(.bss) for sensor_data
    auto_report_app.o(i.uart_write_report) refers to fsl_debug_console.o(i.DbgConsole_Printf) for DbgConsole_Printf
    auto_report_app.o(i.uart_write_report) refers to app_dev_ctrl.o(i.uart_write) for uart_write
    auto_report_app.o(i.uart_write_report) refers to app_dev_ctrl.o(.data) for plc_communication
    alloter.o(i.alloc_a_slot) refers to alloter.o(i.get_last_bit_seqno) for get_last_bit_seqno
    alloter.o(i.alloc_a_slot) refers to alloter.o(.bss) for chn_pool_mgr
    alloter.o(i.free_a_slot) refers to alloter.o(.bss) for chn_pool_mgr
    alloter.o(i.get_chn_bytes) refers to alloter.o(i.free_a_slot) for free_a_slot
    alloter.o(i.get_chn_bytes) refers to memmovea.o(.text) for __aeabi_memcpy
    alloter.o(i.get_chn_bytes) refers to alloter.o(.bss) for chn_pool_mgr
    alloter.o(i.init_chn_pool_mgr) refers to alloter.o(.bss) for chn_pool_mgr
    alloter.o(i.peek_chn_bytes) refers to alloter.o(.bss) for chn_pool_mgr
    alloter.o(i.put_chn_bytes) refers to alloter.o(i.alloc_a_slot) for alloc_a_slot
    alloter.o(i.put_chn_bytes) refers to memmovea.o(.text) for __aeabi_memcpy
    alloter.o(i.put_chn_bytes) refers to alloter.o(.bss) for chn_pool_mgr
    fsl_power_lib.o(i.POWER_EnterDeepSleep) refers to memmovea.o(.text) for __aeabi_memcpy
    fsl_power_lib.o(i.POWER_EnterDeepSleep) refers to fsl_power_lib.o(i.DeepSleepReloc) for DeepSleepReloc
    fsl_power_lib.o(i.POWER_EnterDeepSleep) refers to fsl_power_lib.o(.bss) for relocMem
    fsl_power_lib.o(i.POWER_EnterPowerMode) refers to fsl_power_lib.o(i.POWER_EnterSleep) for POWER_EnterSleep
    fsl_power_lib.o(i.POWER_EnterPowerMode) refers to fsl_power_lib.o(i.POWER_EnterDeepSleep) for POWER_EnterDeepSleep
    fsl_power_lib.o(i.POWER_EnterPowerMode) refers to fsl_power_lib.o(i.POWER_EnterDeepPowerDown) for POWER_EnterDeepPowerDown
    fsl_power_lib.o(i.POWER_SetLowPowerVoltageForFreq) refers to fsl_power_lib.o(i.POWER_setLpVdLevel) for POWER_setLpVdLevel
    fsl_power_lib.o(i.POWER_SetVoltageForFreq) refers to fsl_power_lib.o(i.POWER_setVdLevel) for POWER_setVdLevel
    entry.o(.ARM.Collect$$$$00000000) refers (Special) to entry10a.o(.ARM.Collect$$$$0000000D) for __rt_final_cpp
    entry.o(.ARM.Collect$$$$00000000) refers (Special) to entry11a.o(.ARM.Collect$$$$0000000F) for __rt_final_exit
    entry.o(.ARM.Collect$$$$00000000) refers (Special) to entry7b.o(.ARM.Collect$$$$00000008) for _main_clock
    entry.o(.ARM.Collect$$$$00000000) refers (Special) to entry8b.o(.ARM.Collect$$$$0000000A) for _main_cpp_init
    entry.o(.ARM.Collect$$$$00000000) refers (Special) to entry9a.o(.ARM.Collect$$$$0000000B) for _main_init
    entry.o(.ARM.Collect$$$$00000000) refers (Special) to entry5.o(.ARM.Collect$$$$00000004) for _main_scatterload
    entry.o(.ARM.Collect$$$$00000000) refers (Special) to entry4.o(.ARM.Collect$$$$00000003) for _main_stk
    uldiv.o(.text) refers to llushr.o(.text) for __aeabi_llsr
    uldiv.o(.text) refers to llshl.o(.text) for __aeabi_llsl
    dadd.o(.text) refers (Special) to iusefp.o(.text) for __I$use$fp
    dadd.o(.text) refers to llshl.o(.text) for __aeabi_llsl
    dadd.o(.text) refers to llsshr.o(.text) for __aeabi_lasr
    dadd.o(.text) refers to depilogue.o(.text) for _double_epilogue
    dmul.o(.text) refers (Special) to iusefp.o(.text) for __I$use$fp
    dmul.o(.text) refers to depilogue.o(.text) for _double_epilogue
    ddiv.o(.text) refers (Special) to iusefp.o(.text) for __I$use$fp
    ddiv.o(.text) refers to depilogue.o(.text) for _double_round
    dfltui.o(.text) refers (Special) to iusefp.o(.text) for __I$use$fp
    dfltui.o(.text) refers to depilogue.o(.text) for _double_epilogue
    dfixi.o(.text) refers (Special) to iusefp.o(.text) for __I$use$fp
    dfixi.o(.text) refers to llushr.o(.text) for __aeabi_llsr
    dfixui.o(.text) refers (Special) to iusefp.o(.text) for __I$use$fp
    dfixui.o(.text) refers to llushr.o(.text) for __aeabi_llsr
    cdrcmple.o(.text) refers (Special) to iusefp.o(.text) for __I$use$fp
    entry4.o(.ARM.Collect$$$$00000003) refers to entry4.o(.ARM.Collect$$$$00002714) for __lit__00000000
    entry4.o(__vectab_stack_and_reset_area) refers to entry.o(.ARM.Collect$$$$00000000) for __main
    entry5.o(.ARM.Collect$$$$00000004) refers to init.o(.text) for __scatterload
    entry9a.o(.ARM.Collect$$$$0000000B) refers to hello_world_core0.o(i.main) for main
    entry9b.o(.ARM.Collect$$$$0000000C) refers to hello_world_core0.o(i.main) for main
    depilogue.o(.text) refers to llshl.o(.text) for __aeabi_llsl
    depilogue.o(.text) refers to llushr.o(.text) for __aeabi_llsr
    init.o(.text) refers to entry5.o(.ARM.Collect$$$$00000004) for __main_after_scatterload


==============================================================================

Removing Unused input sections from the image.

    Removing hello_world_core0.o(.rev16_text), (4 bytes).
    Removing hello_world_core0.o(.revsh_text), (4 bytes).
    Removing hello_world_core0.o(.rrx_text), (6 bytes).
    Removing hello_world_core0.o(i.delay), (20 bytes).
    Removing system_lpc54114_cm4.o(.rev16_text), (4 bytes).
    Removing system_lpc54114_cm4.o(.revsh_text), (4 bytes).
    Removing system_lpc54114_cm4.o(.rrx_text), (6 bytes).
    Removing system_lpc54114_cm4.o(i.GetWdtOscFreq), (44 bytes).
    Removing system_lpc54114_cm4.o(i.SystemCoreClockUpdate), (340 bytes).
    Removing system_lpc54114_cm4.o(i.findPllMMult), (34 bytes).
    Removing system_lpc54114_cm4.o(i.findPllPostDiv), (32 bytes).
    Removing system_lpc54114_cm4.o(i.findPllPreDiv), (32 bytes).
    Removing system_lpc54114_cm4.o(i.pllDecodeM), (92 bytes).
    Removing system_lpc54114_cm4.o(i.pllDecodeN), (92 bytes).
    Removing system_lpc54114_cm4.o(i.pllDecodeP), (78 bytes).
    Removing system_lpc54114_cm4.o(.constdata), (32 bytes).
    Removing fsl_usart.o(.rev16_text), (4 bytes).
    Removing fsl_usart.o(.revsh_text), (4 bytes).
    Removing fsl_usart.o(.rrx_text), (6 bytes).
    Removing fsl_usart.o(i.USART_Deinit), (132 bytes).
    Removing fsl_usart.o(i.USART_GetInstance), (108 bytes).
    Removing fsl_usart.o(i.USART_TransferAbortReceive), (136 bytes).
    Removing fsl_usart.o(i.USART_TransferAbortSend), (128 bytes).
    Removing fsl_usart.o(i.USART_TransferCreateHandle), (256 bytes).
    Removing fsl_usart.o(i.USART_TransferGetReceiveCount), (152 bytes).
    Removing fsl_usart.o(i.USART_TransferGetRxRingBufferLength), (120 bytes).
    Removing fsl_usart.o(i.USART_TransferGetSendCount), (152 bytes).
    Removing fsl_usart.o(i.USART_TransferHandleIRQ), (576 bytes).
    Removing fsl_usart.o(i.USART_TransferIsRxRingBufferFull), (116 bytes).
    Removing fsl_usart.o(i.USART_TransferReceiveNonBlocking), (472 bytes).
    Removing fsl_usart.o(i.USART_TransferSendNonBlocking), (284 bytes).
    Removing fsl_usart.o(i.USART_TransferStartRingBuffer), (188 bytes).
    Removing fsl_usart.o(i.USART_TransferStopRingBuffer), (148 bytes).
    Removing fsl_usart.o(.constdata), (40 bytes).
    Removing fsl_flexcomm.o(.rev16_text), (4 bytes).
    Removing fsl_flexcomm.o(.revsh_text), (4 bytes).
    Removing fsl_flexcomm.o(.rrx_text), (6 bytes).
    Removing fsl_flexcomm.o(i.FLEXCOMM_SetIRQHandler), (52 bytes).
    Removing fsl_gpio.o(.rev16_text), (4 bytes).
    Removing fsl_gpio.o(.revsh_text), (4 bytes).
    Removing fsl_gpio.o(.rrx_text), (6 bytes).
    Removing fsl_gpio.o(i.GPIO_PinInit), (84 bytes).
    Removing fsl_common.o(.rev16_text), (4 bytes).
    Removing fsl_common.o(.revsh_text), (4 bytes).
    Removing fsl_common.o(.rrx_text), (6 bytes).
    Removing fsl_common.o(i.DisableDeepSleepIRQ), (72 bytes).
    Removing fsl_common.o(i.EnableDeepSleepIRQ), (72 bytes).
    Removing fsl_common.o(i.InstallIRQHandler), (112 bytes).
    Removing fsl_clock.o(.rev16_text), (4 bytes).
    Removing fsl_clock.o(.revsh_text), (4 bytes).
    Removing fsl_clock.o(.rrx_text), (6 bytes).
    Removing fsl_clock.o(i.CLOCK_EnableUsbfs0Clock), (172 bytes).
    Removing fsl_clock.o(i.CLOCK_GetPllConfig), (500 bytes).
    Removing fsl_clock.o(i.CLOCK_GetSystemPLLInClockRate), (76 bytes).
    Removing fsl_clock.o(i.CLOCK_GetSystemPLLOutClockRate), (76 bytes).
    Removing fsl_clock.o(i.CLOCK_GetSystemPLLOutFromSetup), (182 bytes).
    Removing fsl_clock.o(i.CLOCK_GetSystemPLLOutFromSetupUpdate), (20 bytes).
    Removing fsl_clock.o(i.CLOCK_SetFRGClock), (84 bytes).
    Removing fsl_clock.o(i.CLOCK_SetPLLFreq), (204 bytes).
    Removing fsl_clock.o(i.CLOCK_SetStoredPLLClockRate), (12 bytes).
    Removing fsl_clock.o(i.CLOCK_SetupPLLData), (112 bytes).
    Removing fsl_clock.o(i.CLOCK_SetupSystemPLLMult), (268 bytes).
    Removing fsl_clock.o(i.CLOCK_SetupSystemPLLPrec), (224 bytes).
    Removing fsl_clock.o(i.FindGreatestCommonDivisor), (20 bytes).
    Removing fsl_clock.o(i.POWER_EnablePD), (20 bytes).
    Removing fsl_clock.o(i.findPllMMult), (34 bytes).
    Removing fsl_clock.o(i.findPllPostDiv), (32 bytes).
    Removing fsl_clock.o(i.findPllPreDiv), (32 bytes).
    Removing fsl_clock.o(i.pllDecodeM), (90 bytes).
    Removing fsl_clock.o(i.pllDecodeN), (92 bytes).
    Removing fsl_clock.o(i.pllDecodeP), (78 bytes).
    Removing fsl_clock.o(i.pllEncodeM), (84 bytes).
    Removing fsl_clock.o(i.pllEncodeN), (82 bytes).
    Removing fsl_clock.o(i.pllEncodeP), (66 bytes).
    Removing fsl_clock.o(i.pllFindSel), (116 bytes).
    Removing fsl_power.o(.rev16_text), (4 bytes).
    Removing fsl_power.o(.revsh_text), (4 bytes).
    Removing fsl_power.o(.rrx_text), (6 bytes).
    Removing fsl_reset.o(.rev16_text), (4 bytes).
    Removing fsl_reset.o(.revsh_text), (4 bytes).
    Removing fsl_reset.o(.rrx_text), (6 bytes).
    Removing fsl_i2c.o(.rev16_text), (4 bytes).
    Removing fsl_i2c.o(.revsh_text), (4 bytes).
    Removing fsl_i2c.o(.rrx_text), (6 bytes).
    Removing fsl_i2c.o(i.EnableIRQ), (36 bytes).
    Removing fsl_i2c.o(i.I2C_DisableInterrupts), (6 bytes).
    Removing fsl_i2c.o(i.I2C_EnableInterrupts), (6 bytes).
    Removing fsl_i2c.o(i.I2C_GetInstance), (108 bytes).
    Removing fsl_i2c.o(i.I2C_InitTransferStateMachine), (142 bytes).
    Removing fsl_i2c.o(i.I2C_MasterDeinit), (14 bytes).
    Removing fsl_i2c.o(i.I2C_MasterReadBlocking), (248 bytes).
    Removing fsl_i2c.o(i.I2C_MasterRepeatedStart), (20 bytes).
    Removing fsl_i2c.o(i.I2C_MasterStop), (20 bytes).
    Removing fsl_i2c.o(i.I2C_MasterTransferAbort), (54 bytes).
    Removing fsl_i2c.o(i.I2C_MasterTransferBlocking), (284 bytes).
    Removing fsl_i2c.o(i.I2C_MasterTransferCreateHandle), (152 bytes).
    Removing fsl_i2c.o(i.I2C_MasterTransferGetCount), (116 bytes).
    Removing fsl_i2c.o(i.I2C_MasterTransferHandleIRQ), (58 bytes).
    Removing fsl_i2c.o(i.I2C_MasterTransferNonBlocking), (240 bytes).
    Removing fsl_i2c.o(i.I2C_RunTransferStateMachine), (442 bytes).
    Removing fsl_i2c.o(i.I2C_SlaveAddressIRQ), (116 bytes).
    Removing fsl_i2c.o(i.I2C_SlaveDeinit), (14 bytes).
    Removing fsl_i2c.o(i.I2C_SlaveDivVal), (100 bytes).
    Removing fsl_i2c.o(i.I2C_SlaveEnable), (12 bytes).
    Removing fsl_i2c.o(i.I2C_SlaveGetDefaultConfig), (132 bytes).
    Removing fsl_i2c.o(i.I2C_SlaveInit), (128 bytes).
    Removing fsl_i2c.o(i.I2C_SlaveInternalStateMachineReset), (14 bytes).
    Removing fsl_i2c.o(i.I2C_SlaveInvokeEvent), (72 bytes).
    Removing fsl_i2c.o(i.I2C_SlavePollPending), (18 bytes).
    Removing fsl_i2c.o(i.I2C_SlaveReadBlocking), (170 bytes).
    Removing fsl_i2c.o(i.I2C_SlaveSetAddress), (24 bytes).
    Removing fsl_i2c.o(i.I2C_SlaveSetReceiveBuffer), (36 bytes).
    Removing fsl_i2c.o(i.I2C_SlaveSetSendBuffer), (40 bytes).
    Removing fsl_i2c.o(i.I2C_SlaveTransferAbort), (36 bytes).
    Removing fsl_i2c.o(i.I2C_SlaveTransferCreateHandle), (160 bytes).
    Removing fsl_i2c.o(i.I2C_SlaveTransferGetCount), (116 bytes).
    Removing fsl_i2c.o(i.I2C_SlaveTransferHandleIRQ), (344 bytes).
    Removing fsl_i2c.o(i.I2C_SlaveTransferNonBlocking), (30 bytes).
    Removing fsl_i2c.o(i.I2C_SlaveTransferNonBlockingInternal), (184 bytes).
    Removing fsl_i2c.o(i.I2C_SlaveWriteBlocking), (174 bytes).
    Removing fsl_i2c.o(.constdata), (40 bytes).
    Removing fsl_spi.o(.rev16_text), (4 bytes).
    Removing fsl_spi.o(.revsh_text), (4 bytes).
    Removing fsl_spi.o(.rrx_text), (6 bytes).
    Removing fsl_spi.o(i.SPI_Deinit), (124 bytes).
    Removing fsl_spi.o(i.SPI_EnableRxDMA), (30 bytes).
    Removing fsl_spi.o(i.SPI_EnableTxDMA), (30 bytes).
    Removing fsl_spi.o(i.SPI_GetConfig), (32 bytes).
    Removing fsl_spi.o(i.SPI_MasterTransferAbort), (132 bytes).
    Removing fsl_spi.o(i.SPI_MasterTransferCreateHandle), (348 bytes).
    Removing fsl_spi.o(i.SPI_MasterTransferGetCount), (132 bytes).
    Removing fsl_spi.o(i.SPI_MasterTransferHandleIRQ), (340 bytes).
    Removing fsl_spi.o(i.SPI_MasterTransferNonBlocking), (268 bytes).
    Removing fsl_spi.o(i.SPI_SlaveGetDefaultConfig), (116 bytes).
    Removing fsl_spi.o(i.SPI_SlaveInit), (336 bytes).
    Removing fsl_spi.o(i.SPI_SlaveTransferHandleIRQ), (16 bytes).
    Removing fsl_spi.o(i.SPI_TransferHandleIRQInternal), (404 bytes).
    Removing fsl_spi.o(i.SPI_WriteData), (256 bytes).
    Removing fsl_inputmux.o(.rev16_text), (4 bytes).
    Removing fsl_inputmux.o(.revsh_text), (4 bytes).
    Removing fsl_inputmux.o(.rrx_text), (6 bytes).
    Removing fsl_pint.o(.rev16_text), (4 bytes).
    Removing fsl_pint.o(.revsh_text), (4 bytes).
    Removing fsl_pint.o(.rrx_text), (6 bytes).
    Removing fsl_pint.o(i.PINT_Deinit), (160 bytes).
    Removing fsl_pint.o(i.PINT_DisableCallback), (156 bytes).
    Removing fsl_pint.o(i.PINT_PatternMatchConfig), (188 bytes).
    Removing fsl_pint.o(i.PINT_PatternMatchGetConfig), (180 bytes).
    Removing fsl_pint.o(i.PINT_PinInterruptGetConfig), (188 bytes).
    Removing fsl_ctimer.o(.rev16_text), (4 bytes).
    Removing fsl_ctimer.o(.revsh_text), (4 bytes).
    Removing fsl_ctimer.o(.rrx_text), (6 bytes).
    Removing fsl_ctimer.o(i.CTIMER_Deinit), (112 bytes).
    Removing fsl_ctimer.o(i.CTIMER_GetDefaultConfig), (92 bytes).
    Removing fsl_ctimer.o(i.CTIMER_GetInstance), (140 bytes).
    Removing fsl_ctimer.o(i.CTIMER_Init), (184 bytes).
    Removing fsl_ctimer.o(i.CTIMER_RegisterCallBack), (40 bytes).
    Removing fsl_ctimer.o(i.CTIMER_SetupCapture), (92 bytes).
    Removing fsl_ctimer.o(i.CTIMER_SetupMatch), (148 bytes).
    Removing fsl_ctimer.o(i.CTIMER_SetupPwm), (268 bytes).
    Removing fsl_ctimer.o(i.CTIMER_UpdatePwmDutycycle), (46 bytes).
    Removing fsl_ctimer.o(i.EnableIRQ), (36 bytes).
    Removing fsl_sctimer.o(.rev16_text), (4 bytes).
    Removing fsl_sctimer.o(.revsh_text), (4 bytes).
    Removing fsl_sctimer.o(.rrx_text), (6 bytes).
    Removing fsl_sctimer.o(i.SCTIMER_Deinit), (68 bytes).
    Removing fsl_sctimer.o(i.SCTIMER_GetCurrentState), (12 bytes).
    Removing fsl_sctimer.o(i.SCTIMER_IncreaseState), (32 bytes).
    Removing fsl_sctimer.o(i.SCTIMER_ScheduleEvent), (36 bytes).
    Removing fsl_sctimer.o(i.SCTIMER_SetCallback), (12 bytes).
    Removing fsl_sctimer.o(i.SCTIMER_SetupCaptureAction), (160 bytes).
    Removing fsl_sctimer.o(i.SCTIMER_SetupOutputToggleAction), (72 bytes).
    Removing fsl_sctimer.o(i.SCTIMER_UpdatePwmDutycycle), (268 bytes).
    Removing fsl_dma.o(.rev16_text), (4 bytes).
    Removing fsl_dma.o(.revsh_text), (4 bytes).
    Removing fsl_dma.o(.rrx_text), (6 bytes).
    Removing fsl_dma.o(i.DMA_AbortTransfer), (204 bytes).
    Removing fsl_dma.o(i.DMA_ChannelIsActive), (72 bytes).
    Removing fsl_dma.o(i.DMA_ConfigureChannelTrigger), (132 bytes).
    Removing fsl_dma.o(i.DMA_CreateDescriptor), (300 bytes).
    Removing fsl_dma.o(i.DMA_CreateHandle), (168 bytes).
    Removing fsl_dma.o(i.DMA_Deinit), (10 bytes).
    Removing fsl_dma.o(i.DMA_DisableChannel), (88 bytes).
    Removing fsl_dma.o(i.DMA_EnableChannel), (84 bytes).
    Removing fsl_dma.o(i.DMA_GetInstance), (152 bytes).
    Removing fsl_dma.o(i.DMA_GetRemainingBytes), (200 bytes).
    Removing fsl_dma.o(i.DMA_Init), (60 bytes).
    Removing fsl_dma.o(i.DMA_PrepareTransfer), (412 bytes).
    Removing fsl_dma.o(i.DMA_SetCallback), (104 bytes).
    Removing fsl_dma.o(i.DMA_SetupDescriptor), (14 bytes).
    Removing fsl_dma.o(i.DMA_SetupXferCFG), (480 bytes).
    Removing fsl_dma.o(i.DMA_StartTransfer), (248 bytes).
    Removing fsl_dma.o(i.DMA_SubmitTransfer), (380 bytes).
    Removing fsl_dma.o(.constdata), (5 bytes).
    Removing fsl_dma.o(.conststring), (707 bytes).
    Removing fsl_usart_dma.o(.rev16_text), (4 bytes).
    Removing fsl_usart_dma.o(.revsh_text), (4 bytes).
    Removing fsl_usart_dma.o(.rrx_text), (6 bytes).
    Removing fsl_usart_dma.o(i.USART_EnableRxDMA), (30 bytes).
    Removing fsl_usart_dma.o(i.USART_EnableTxDMA), (30 bytes).
    Removing fsl_usart_dma.o(i.USART_TransferAbortReceiveDMA), (152 bytes).
    Removing fsl_usart_dma.o(i.USART_TransferAbortSendDMA), (152 bytes).
    Removing fsl_usart_dma.o(i.USART_TransferCreateHandleDMA), (260 bytes).
    Removing fsl_usart_dma.o(i.USART_TransferGetReceiveCountDMA), (180 bytes).
    Removing fsl_usart_dma.o(i.USART_TransferReceiveDMA), (288 bytes).
    Removing fsl_usart_dma.o(i.USART_TransferReceiveDMACallback), (160 bytes).
    Removing fsl_usart_dma.o(i.USART_TransferSendDMA), (288 bytes).
    Removing fsl_usart_dma.o(i.USART_TransferSendDMACallback), (160 bytes).
    Removing fsl_usart_dma.o(.bss), (64 bytes).
    Removing fsl_usart_cmsis.o(.rev16_text), (4 bytes).
    Removing fsl_usart_cmsis.o(.revsh_text), (4 bytes).
    Removing fsl_usart_cmsis.o(.rrx_text), (6 bytes).
    Removing fsl_usart_cmsis.o(i.DMA_DisableChannel), (184 bytes).
    Removing fsl_usart_cmsis.o(i.DMA_EnableChannel), (180 bytes).
    Removing fsl_usart_cmsis.o(i.KSDK_USART_DmaCallback), (42 bytes).
    Removing fsl_usart_cmsis.o(i.USART5_DmaControl), (24 bytes).
    Removing fsl_usart_cmsis.o(i.USART5_DmaGetRxCount), (16 bytes).
    Removing fsl_usart_cmsis.o(i.USART5_DmaGetStatus), (16 bytes).
    Removing fsl_usart_cmsis.o(i.USART5_DmaGetTxCount), (16 bytes).
    Removing fsl_usart_cmsis.o(i.USART5_DmaInitialize), (24 bytes).
    Removing fsl_usart_cmsis.o(i.USART5_DmaPowerControl), (20 bytes).
    Removing fsl_usart_cmsis.o(i.USART5_DmaReceive), (24 bytes).
    Removing fsl_usart_cmsis.o(i.USART5_DmaSend), (24 bytes).
    Removing fsl_usart_cmsis.o(i.USART5_DmaTransfer), (28 bytes).
    Removing fsl_usart_cmsis.o(i.USART5_DmaUninitialize), (20 bytes).
    Removing fsl_usart_cmsis.o(i.USART_CommonControl), (234 bytes).
    Removing fsl_usart_cmsis.o(i.USART_DmaControl), (168 bytes).
    Removing fsl_usart_cmsis.o(i.USART_DmaGetRxCount), (8 bytes).
    Removing fsl_usart_cmsis.o(i.USART_DmaGetStatus), (104 bytes).
    Removing fsl_usart_cmsis.o(i.USART_DmaGetTxCount), (8 bytes).
    Removing fsl_usart_cmsis.o(i.USART_DmaInitialize), (20 bytes).
    Removing fsl_usart_cmsis.o(i.USART_DmaPowerControl), (204 bytes).
    Removing fsl_usart_cmsis.o(i.USART_DmaReceive), (80 bytes).
    Removing fsl_usart_cmsis.o(i.USART_DmaSend), (80 bytes).
    Removing fsl_usart_cmsis.o(i.USART_DmaTransfer), (10 bytes).
    Removing fsl_usart_cmsis.o(i.USART_DmaUninitialize), (8 bytes).
    Removing fsl_usart_cmsis.o(i.USARTx_GetCapabilities), (12 bytes).
    Removing fsl_usart_cmsis.o(i.USARTx_GetModemStatus), (38 bytes).
    Removing fsl_usart_cmsis.o(i.USARTx_GetVersion), (16 bytes).
    Removing fsl_usart_cmsis.o(i.USARTx_SetModemControl), (8 bytes).
    Removing fsl_usart_cmsis.o(.bss), (64 bytes).
    Removing fsl_usart_cmsis.o(.constdata), (88 bytes).
    Removing fsl_usart_cmsis.o(usart5_dma_driver_state), (28 bytes).
    Removing pin_mux.o(.rev16_text), (4 bytes).
    Removing pin_mux.o(.revsh_text), (4 bytes).
    Removing pin_mux.o(.rrx_text), (6 bytes).
    Removing pin_mux.o(i.BOARD_InitPins), (2 bytes).
    Removing pin_mux.o(i.BOARD_InitPins_Core1), (44 bytes).
    Removing pin_mux.o(i.USART5_DeinitPins), (2 bytes).
    Removing board.o(.rev16_text), (4 bytes).
    Removing board.o(.revsh_text), (4 bytes).
    Removing board.o(.rrx_text), (6 bytes).
    Removing board.o(.constdata), (4 bytes).
    Removing clock_config.o(.rev16_text), (4 bytes).
    Removing clock_config.o(.revsh_text), (4 bytes).
    Removing clock_config.o(.rrx_text), (6 bytes).
    Removing clock_config.o(i.BOARD_BootClockFRO12M), (68 bytes).
    Removing clock_config.o(i.BOARD_BootClockFROHF96M), (72 bytes).
    Removing mcmgr_internal_core_api_lpc54114.o(.rev16_text), (4 bytes).
    Removing mcmgr_internal_core_api_lpc54114.o(.revsh_text), (4 bytes).
    Removing mcmgr_internal_core_api_lpc54114.o(.rrx_text), (6 bytes).
    Removing mcmgr.o(i.MCMGR_GetCoreCount), (12 bytes).
    Removing mcmgr.o(i.MCMGR_GetCoreProperty), (60 bytes).
    Removing mcmgr.o(i.MCMGR_GetStartupData), (44 bytes).
    Removing mcmgr.o(i.MCMGR_GetVersion), (8 bytes).
    Removing mcmgr.o(i.MCMGR_LoadApp), (48 bytes).
    Removing mcmgr.o(i.MCMGR_MapAddress), (156 bytes).
    Removing mcmgr.o(i.MCMGR_SignalReady), (40 bytes).
    Removing mcmgr.o(i.MCMGR_StopCore), (40 bytes).
    Removing fsl_debug_console.o(.rev16_text), (4 bytes).
    Removing fsl_debug_console.o(.revsh_text), (4 bytes).
    Removing fsl_debug_console.o(.rrx_text), (6 bytes).
    Removing fsl_debug_console.o(i.DbgConsole_Deinit), (64 bytes).
    Removing fsl_debug_console.o(i.DbgConsole_Getchar), (48 bytes).
    Removing fsl_debug_console.o(i.DbgConsole_ScanIgnoreWhiteSpace), (50 bytes).
    Removing fsl_debug_console.o(i.DbgConsole_Scanf), (124 bytes).
    Removing fsl_debug_console.o(i.DbgConsole_ScanfFormattedData), (980 bytes).
    Removing fsl_debug_console.o(i._read), (48 bytes).
    Removing fsl_debug_console.o(i._write), (64 bytes).
    Removing app_si70xx.o(.rev16_text), (4 bytes).
    Removing app_si70xx.o(.revsh_text), (4 bytes).
    Removing app_si70xx.o(.rrx_text), (6 bytes).
    Removing app_si70xx.o(i.IOCON_PinMuxSet), (12 bytes).
    Removing app_si70xx.o(i.si7020Measure), (416 bytes).
    Removing app_si70xx.o(i.si70xxInit), (88 bytes).
    Removing app_interrupt.o(.rev16_text), (4 bytes).
    Removing app_interrupt.o(.revsh_text), (4 bytes).
    Removing app_interrupt.o(.rrx_text), (6 bytes).
    Removing app_led.o(.rev16_text), (4 bytes).
    Removing app_led.o(.revsh_text), (4 bytes).
    Removing app_led.o(.rrx_text), (6 bytes).
    Removing app_led.o(.constdata), (32 bytes).
    Removing app_dev_ctrl.o(.rev16_text), (4 bytes).
    Removing app_dev_ctrl.o(.revsh_text), (4 bytes).
    Removing app_dev_ctrl.o(.rrx_text), (6 bytes).
    Removing app_dev_ctrl.o(i.dev_ver_cmp), (44 bytes).
    Removing app_dev_ctrl.o(i.dev_ver_get), (48 bytes).
    Removing app_dev_ctrl.o(i.plc_communication_handle), (64 bytes).
    Removing app_dev_ctrl.o(i.showTempHumi), (300 bytes).
    Removing app_lcd.o(.rev16_text), (4 bytes).
    Removing app_lcd.o(.revsh_text), (4 bytes).
    Removing app_lcd.o(.rrx_text), (6 bytes).
    Removing app_lcd.o(i.backlight_toggle), (20 bytes).
    Removing app_lcd.o(i.bu9796SoftInit), (56 bytes).
    Removing app_lcd.o(i.clrAll), (60 bytes).
    Removing app_lcd.o(i.displayOff), (24 bytes).
    Removing app_lcd.o(i.displayOn), (32 bytes).
    Removing app_lcd.o(i.exponentiation), (24 bytes).
    Removing app_lcd.o(i.flash_display_delay), (36 bytes).
    Removing app_lcd.o(i.num_display), (66 bytes).
    Removing app_lcd.o(i.showAll), (60 bytes).
    Removing app_lcd.o(.bss), (37 bytes).
    Removing app_spiflash.o(.rev16_text), (4 bytes).
    Removing app_spiflash.o(.revsh_text), (4 bytes).
    Removing app_spiflash.o(.rrx_text), (6 bytes).
    Removing app_spiflash.o(i.mx25r_cmd_nop), (26 bytes).
    Removing app_key.o(.rev16_text), (4 bytes).
    Removing app_key.o(.revsh_text), (4 bytes).
    Removing app_key.o(.rrx_text), (6 bytes).
    Removing app_realy.o(.rev16_text), (4 bytes).
    Removing app_realy.o(.revsh_text), (4 bytes).
    Removing app_realy.o(.rrx_text), (6 bytes).
    Removing app_beep.o(.rev16_text), (4 bytes).
    Removing app_beep.o(.revsh_text), (4 bytes).
    Removing app_beep.o(.rrx_text), (6 bytes).
    Removing smart_plc.o(.rev16_text), (4 bytes).
    Removing smart_plc.o(.revsh_text), (4 bytes).
    Removing smart_plc.o(.rrx_text), (6 bytes).
    Removing smart_plc.o(i.USART5_GetFreq), (10 bytes).
    Removing smart_plc.o(i.plc_reset_toggle), (24 bytes).
    Removing protocol_smart.o(.rev16_text), (4 bytes).
    Removing protocol_smart.o(.revsh_text), (4 bytes).
    Removing protocol_smart.o(.rrx_text), (6 bytes).
    Removing protocol_smart.o(i.code_ret_frame), (56 bytes).
    Removing auto_report.o(.rev16_text), (4 bytes).
    Removing auto_report.o(.revsh_text), (4 bytes).
    Removing auto_report.o(.rrx_text), (6 bytes).
    Removing auto_report.o(i.get_message_source), (72 bytes).
    Removing auto_report.o(i.insert_said_to_queue), (108 bytes).
    Removing auto_report.o(i.local_key_report), (24 bytes).
    Removing auto_report.o(i.save_subscriber_infor), (44 bytes).
    Removing auto_report_app.o(.rev16_text), (4 bytes).
    Removing auto_report_app.o(.revsh_text), (4 bytes).
    Removing auto_report_app.o(.rrx_text), (6 bytes).
    Removing alloter.o(.rev16_text), (4 bytes).
    Removing alloter.o(.revsh_text), (4 bytes).
    Removing alloter.o(.rrx_text), (6 bytes).
    Removing alloter.o(i.pool_init), (16 bytes).
    Removing utils.o(i.get_be_val), (26 bytes).
    Removing utils.o(i.put_be_val), (18 bytes).
    Removing fsl_power_lib.o(.rev16_text), (4 bytes).
    Removing fsl_power_lib.o(.revsh_text), (4 bytes).
    Removing fsl_power_lib.o(.rrx_text), (6 bytes).
    Removing fsl_power_lib.o(i.DeepSleepReloc), (140 bytes).
    Removing fsl_power_lib.o(i.POWER_EnterDeepPowerDown), (76 bytes).
    Removing fsl_power_lib.o(i.POWER_EnterDeepSleep), (48 bytes).
    Removing fsl_power_lib.o(i.POWER_EnterPowerMode), (52 bytes).
    Removing fsl_power_lib.o(i.POWER_EnterSleep), (40 bytes).
    Removing fsl_power_lib.o(i.POWER_GetLibVersion), (6 bytes).
    Removing fsl_power_lib.o(i.POWER_SetLowPowerVoltageForFreq), (100 bytes).
    Removing fsl_power_lib.o(i.POWER_setLpVdLevel), (60 bytes).
    Removing fsl_power_lib.o(.bss), (1024 bytes).
    Removing dadd.o(.text), (334 bytes).
    Removing dmul.o(.text), (228 bytes).
    Removing ddiv.o(.text), (222 bytes).
    Removing dfltui.o(.text), (26 bytes).
    Removing depilogue.o(.text), (186 bytes).

367 unused section(s) (total 30307 bytes) removed from the image.

==============================================================================

Image Symbol Table

    Local Symbols

    Symbol Name                              Value     Ov Type        Size  Object(Section)

    RESET                                    0x00000000   Section      224  startup_lpc54114_cm4.o(RESET)
    ../../../../../../devices/LPC54114/arm/startup_LPC54114_cm4.s 0x00000000   Number         0  startup_lpc54114_cm4.o ABSOLUTE
    ../../../../../../devices/LPC54114/drivers/fsl_clock.c 0x00000000   Number         0  fsl_clock.o ABSOLUTE
    ../../../../../../devices/LPC54114/drivers/fsl_common.c 0x00000000   Number         0  fsl_common.o ABSOLUTE
    ../../../../../../devices/LPC54114/drivers/fsl_flexcomm.c 0x00000000   Number         0  fsl_flexcomm.o ABSOLUTE
    ../../../../../../devices/LPC54114/drivers/fsl_gpio.c 0x00000000   Number         0  fsl_gpio.o ABSOLUTE
    ../../../../../../devices/LPC54114/drivers/fsl_power.c 0x00000000   Number         0  fsl_power.o ABSOLUTE
    ../../../../../../devices/LPC54114/drivers/fsl_reset.c 0x00000000   Number         0  fsl_reset.o ABSOLUTE
    ../../../../../../devices/LPC54114/drivers/fsl_usart.c 0x00000000   Number         0  fsl_usart.o ABSOLUTE
    ../../../../../../devices/LPC54114/system_LPC54114_cm4.c 0x00000000   Number         0  system_lpc54114_cm4.o ABSOLUTE
    ../../../../../../devices/LPC54114/utilities/fsl_debug_console.c 0x00000000   Number         0  fsl_debug_console.o ABSOLUTE
    ../../../../../../middleware/multicore_2.2.0/mcmgr/src/mcmgr.c 0x00000000   Number         0  mcmgr.o ABSOLUTE
    ../../../../../../middleware/multicore_2.2.0/mcmgr/src/mcmgr_internal_core_api_lpc54114.c 0x00000000   Number         0  mcmgr_internal_core_api_lpc54114.o ABSOLUTE
    ../../pin_mux.c                          0x00000000   Number         0  pin_mux.o ABSOLUTE
    ../board.c                               0x00000000   Number         0  board.o ABSOLUTE
    ../clib/../cmprslib/zerorunl2.c          0x00000000   Number         0  __dczerorl2.o ABSOLUTE
    ../clib/microlib/division.c              0x00000000   Number         0  uldiv.o ABSOLUTE
    ../clib/microlib/init/entry.s            0x00000000   Number         0  entry4.o ABSOLUTE
    ../clib/microlib/init/entry.s            0x00000000   Number         0  entry.o ABSOLUTE
    ../clib/microlib/init/entry.s            0x00000000   Number         0  entry7b.o ABSOLUTE
    ../clib/microlib/init/entry.s            0x00000000   Number         0  entry9a.o ABSOLUTE
    ../clib/microlib/init/entry.s            0x00000000   Number         0  entry7a.o ABSOLUTE
    ../clib/microlib/init/entry.s            0x00000000   Number         0  entry8a.o ABSOLUTE
    ../clib/microlib/init/entry.s            0x00000000   Number         0  entry9b.o ABSOLUTE
    ../clib/microlib/init/entry.s            0x00000000   Number         0  entry5.o ABSOLUTE
    ../clib/microlib/init/entry.s            0x00000000   Number         0  entry10a.o ABSOLUTE
    ../clib/microlib/init/entry.s            0x00000000   Number         0  entry10b.o ABSOLUTE
    ../clib/microlib/init/entry.s            0x00000000   Number         0  entry11a.o ABSOLUTE
    ../clib/microlib/init/entry.s            0x00000000   Number         0  entry11b.o ABSOLUTE
    ../clib/microlib/init/entry.s            0x00000000   Number         0  entry8b.o ABSOLUTE
    ../clib/microlib/longlong.c              0x00000000   Number         0  llshl.o ABSOLUTE
    ../clib/microlib/longlong.c              0x00000000   Number         0  llushr.o ABSOLUTE
    ../clib/microlib/longlong.c              0x00000000   Number         0  llsshr.o ABSOLUTE
    ../clib/microlib/string/memcmp.c         0x00000000   Number         0  memcmp.o ABSOLUTE
    ../clib/microlib/string/memcpy.c         0x00000000   Number         0  memcpyb.o ABSOLUTE
    ../clib/microlib/string/memcpy.c         0x00000000   Number         0  memcpya.o ABSOLUTE
    ../clib/microlib/string/memcpy.c         0x00000000   Number         0  memmovea.o ABSOLUTE
    ../clib/microlib/string/memcpy.c         0x00000000   Number         0  memmoveb.o ABSOLUTE
    ../clib/microlib/string/memset.c         0x00000000   Number         0  memseta.o ABSOLUTE
    ../clib/microlib/string/strlen.c         0x00000000   Number         0  strlen.o ABSOLUTE
    ../clib/microlib/stubs.s                 0x00000000   Number         0  iusefp.o ABSOLUTE
    ../clock_config.c                        0x00000000   Number         0  clock_config.o ABSOLUTE
    ../fplib/microlib/fpadd.c                0x00000000   Number         0  dadd.o ABSOLUTE
    ../fplib/microlib/fpdiv.c                0x00000000   Number         0  ddiv.o ABSOLUTE
    ../fplib/microlib/fpepilogue.c           0x00000000   Number         0  depilogue.o ABSOLUTE
    ../fplib/microlib/fpfix.c                0x00000000   Number         0  dfixi.o ABSOLUTE
    ../fplib/microlib/fpfix.c                0x00000000   Number         0  dfixui.o ABSOLUTE
    ../fplib/microlib/fpflt.c                0x00000000   Number         0  dfltui.o ABSOLUTE
    ../fplib/microlib/fpmul.c                0x00000000   Number         0  dmul.o ABSOLUTE
    ../hello_world_core0.c                   0x00000000   Number         0  hello_world_core0.o ABSOLUTE
    ../incbin.s                              0x00000000   Number         0  incbin.o ABSOLUTE
    ..\..\..\..\..\..\devices\LPC54114\cmsis_drivers\fsl_usart_cmsis.c 0x00000000   Number         0  fsl_usart_cmsis.o ABSOLUTE
    ..\..\..\..\..\..\devices\LPC54114\drivers\fsl_clock.c 0x00000000   Number         0  fsl_clock.o ABSOLUTE
    ..\..\..\..\..\..\devices\LPC54114\drivers\fsl_common.c 0x00000000   Number         0  fsl_common.o ABSOLUTE
    ..\..\..\..\..\..\devices\LPC54114\drivers\fsl_ctimer.c 0x00000000   Number         0  fsl_ctimer.o ABSOLUTE
    ..\..\..\..\..\..\devices\LPC54114\drivers\fsl_dma.c 0x00000000   Number         0  fsl_dma.o ABSOLUTE
    ..\..\..\..\..\..\devices\LPC54114\drivers\fsl_flexcomm.c 0x00000000   Number         0  fsl_flexcomm.o ABSOLUTE
    ..\..\..\..\..\..\devices\LPC54114\drivers\fsl_gpio.c 0x00000000   Number         0  fsl_gpio.o ABSOLUTE
    ..\..\..\..\..\..\devices\LPC54114\drivers\fsl_i2c.c 0x00000000   Number         0  fsl_i2c.o ABSOLUTE
    ..\..\..\..\..\..\devices\LPC54114\drivers\fsl_inputmux.c 0x00000000   Number         0  fsl_inputmux.o ABSOLUTE
    ..\..\..\..\..\..\devices\LPC54114\drivers\fsl_pint.c 0x00000000   Number         0  fsl_pint.o ABSOLUTE
    ..\..\..\..\..\..\devices\LPC54114\drivers\fsl_power.c 0x00000000   Number         0  fsl_power.o ABSOLUTE
    ..\..\..\..\..\..\devices\LPC54114\drivers\fsl_reset.c 0x00000000   Number         0  fsl_reset.o ABSOLUTE
    ..\..\..\..\..\..\devices\LPC54114\drivers\fsl_sctimer.c 0x00000000   Number         0  fsl_sctimer.o ABSOLUTE
    ..\..\..\..\..\..\devices\LPC54114\drivers\fsl_spi.c 0x00000000   Number         0  fsl_spi.o ABSOLUTE
    ..\..\..\..\..\..\devices\LPC54114\drivers\fsl_usart.c 0x00000000   Number         0  fsl_usart.o ABSOLUTE
    ..\..\..\..\..\..\devices\LPC54114\drivers\fsl_usart_dma.c 0x00000000   Number         0  fsl_usart_dma.o ABSOLUTE
    ..\..\..\..\..\..\devices\LPC54114\system_LPC54114_cm4.c 0x00000000   Number         0  system_lpc54114_cm4.o ABSOLUTE
    ..\..\..\..\..\..\devices\LPC54114\utilities\fsl_debug_console.c 0x00000000   Number         0  fsl_debug_console.o ABSOLUTE
    ..\..\..\..\..\..\middleware\multicore_2.2.0\mcmgr\src\mcmgr_internal_core_api_lpc54114.c 0x00000000   Number         0  mcmgr_internal_core_api_lpc54114.o ABSOLUTE
    ..\..\app\app_beep.c                     0x00000000   Number         0  app_beep.o ABSOLUTE
    ..\..\app\app_dev_ctrl.c                 0x00000000   Number         0  app_dev_ctrl.o ABSOLUTE
    ..\..\app\app_interrupt.c                0x00000000   Number         0  app_interrupt.o ABSOLUTE
    ..\..\app\app_key.c                      0x00000000   Number         0  app_key.o ABSOLUTE
    ..\..\app\app_lcd.c                      0x00000000   Number         0  app_lcd.o ABSOLUTE
    ..\..\app\app_led.c                      0x00000000   Number         0  app_led.o ABSOLUTE
    ..\..\app\app_realy.c                    0x00000000   Number         0  app_realy.o ABSOLUTE
    ..\..\app\app_si70xx.c                   0x00000000   Number         0  app_si70xx.o ABSOLUTE
    ..\..\app\app_spiflash.c                 0x00000000   Number         0  app_spiflash.o ABSOLUTE
    ..\..\app\auto_report.c                  0x00000000   Number         0  auto_report.o ABSOLUTE
    ..\..\app\auto_report_app.c              0x00000000   Number         0  auto_report_app.o ABSOLUTE
    ..\..\app\protocol_smart.c               0x00000000   Number         0  protocol_smart.o ABSOLUTE
    ..\..\app\smart_plc.c                    0x00000000   Number         0  smart_plc.o ABSOLUTE
    ..\..\app\utils.c                        0x00000000   Number         0  utils.o ABSOLUTE
    ..\..\fsl_power_lib.c                    0x00000000   Number         0  fsl_power_lib.o ABSOLUTE
    ..\..\pin_mux.c                          0x00000000   Number         0  pin_mux.o ABSOLUTE
    ..\..\src\alloter.c                      0x00000000   Number         0  alloter.o ABSOLUTE
    ..\\..\\..\\..\\..\\..\\devices\\LPC54114\\cmsis_drivers\\fsl_usart_cmsis.c 0x00000000   Number         0  fsl_usart_cmsis.o ABSOLUTE
    ..\\..\\..\\..\\..\\..\\devices\\LPC54114\\drivers\\fsl_ctimer.c 0x00000000   Number         0  fsl_ctimer.o ABSOLUTE
    ..\\..\\..\\..\\..\\..\\devices\\LPC54114\\drivers\\fsl_dma.c 0x00000000   Number         0  fsl_dma.o ABSOLUTE
    ..\\..\\..\\..\\..\\..\\devices\\LPC54114\\drivers\\fsl_i2c.c 0x00000000   Number         0  fsl_i2c.o ABSOLUTE
    ..\\..\\..\\..\\..\\..\\devices\\LPC54114\\drivers\\fsl_inputmux.c 0x00000000   Number         0  fsl_inputmux.o ABSOLUTE
    ..\\..\\..\\..\\..\\..\\devices\\LPC54114\\drivers\\fsl_pint.c 0x00000000   Number         0  fsl_pint.o ABSOLUTE
    ..\\..\\..\\..\\..\\..\\devices\\LPC54114\\drivers\\fsl_sctimer.c 0x00000000   Number         0  fsl_sctimer.o ABSOLUTE
    ..\\..\\..\\..\\..\\..\\devices\\LPC54114\\drivers\\fsl_spi.c 0x00000000   Number         0  fsl_spi.o ABSOLUTE
    ..\\..\\..\\..\\..\\..\\devices\\LPC54114\\drivers\\fsl_usart_dma.c 0x00000000   Number         0  fsl_usart_dma.o ABSOLUTE
    ..\\..\\app\\app_beep.c                  0x00000000   Number         0  app_beep.o ABSOLUTE
    ..\\..\\app\\app_dev_ctrl.c              0x00000000   Number         0  app_dev_ctrl.o ABSOLUTE
    ..\\..\\app\\app_interrupt.c             0x00000000   Number         0  app_interrupt.o ABSOLUTE
    ..\\..\\app\\app_key.c                   0x00000000   Number         0  app_key.o ABSOLUTE
    ..\\..\\app\\app_lcd.c                   0x00000000   Number         0  app_lcd.o ABSOLUTE
    ..\\..\\app\\app_led.c                   0x00000000   Number         0  app_led.o ABSOLUTE
    ..\\..\\app\\app_realy.c                 0x00000000   Number         0  app_realy.o ABSOLUTE
    ..\\..\\app\\app_si70xx.c                0x00000000   Number         0  app_si70xx.o ABSOLUTE
    ..\\..\\app\\app_spiflash.c              0x00000000   Number         0  app_spiflash.o ABSOLUTE
    ..\\..\\app\\auto_report.c               0x00000000   Number         0  auto_report.o ABSOLUTE
    ..\\..\\app\\auto_report_app.c           0x00000000   Number         0  auto_report_app.o ABSOLUTE
    ..\\..\\app\\protocol_smart.c            0x00000000   Number         0  protocol_smart.o ABSOLUTE
    ..\\..\\app\\smart_plc.c                 0x00000000   Number         0  smart_plc.o ABSOLUTE
    ..\\..\\fsl_power_lib.c                  0x00000000   Number         0  fsl_power_lib.o ABSOLUTE
    ..\\..\\src\\alloter.c                   0x00000000   Number         0  alloter.o ABSOLUTE
    ..\board.c                               0x00000000   Number         0  board.o ABSOLUTE
    ..\clock_config.c                        0x00000000   Number         0  clock_config.o ABSOLUTE
    ..\hello_world_core0.c                   0x00000000   Number         0  hello_world_core0.o ABSOLUTE
    cdrcmple.s                               0x00000000   Number         0  cdrcmple.o ABSOLUTE
    dc.s                                     0x00000000   Number         0  dc.o ABSOLUTE
    handlers.s                               0x00000000   Number         0  handlers.o ABSOLUTE
    init.s                                   0x00000000   Number         0  init.o ABSOLUTE
    .ARM.Collect$$$$00000000                 0x000000e0   Section        0  entry.o(.ARM.Collect$$$$00000000)
    .ARM.Collect$$$$00000003                 0x000000e0   Section        4  entry4.o(.ARM.Collect$$$$00000003)
    .ARM.Collect$$$$00000004                 0x000000e4   Section        4  entry5.o(.ARM.Collect$$$$00000004)
    .ARM.Collect$$$$00000008                 0x000000e8   Section        0  entry7b.o(.ARM.Collect$$$$00000008)
    .ARM.Collect$$$$0000000A                 0x000000e8   Section        0  entry8b.o(.ARM.Collect$$$$0000000A)
    .ARM.Collect$$$$0000000B                 0x000000e8   Section        8  entry9a.o(.ARM.Collect$$$$0000000B)
    .ARM.Collect$$$$0000000D                 0x000000f0   Section        0  entry10a.o(.ARM.Collect$$$$0000000D)
    .ARM.Collect$$$$0000000F                 0x000000f0   Section        0  entry11a.o(.ARM.Collect$$$$0000000F)
    .ARM.Collect$$$$00002714                 0x000000f0   Section        4  entry4.o(.ARM.Collect$$$$00002714)
    __lit__00000000                          0x000000f0   Data           4  entry4.o(.ARM.Collect$$$$00002714)
    .text                                    0x000000f4   Section      440  startup_lpc54114_cm4.o(.text)
    rel_vals                                 0x000000f4   Data           0  startup_lpc54114_cm4.o(.text)
    $v0                                      0x00000108   Number         0  startup_lpc54114_cm4.o(.text)
    .text                                    0x000002ac   Section        0  memmovea.o(.text)
    .text                                    0x000002ec   Section        0  strlen.o(.text)
    .text                                    0x000002fa   Section        0  iusefp.o(.text)
    i.__scatterload_null                     0x000002fa   Section        2  handlers.o(i.__scatterload_null)
    .ARM.__at_0x02FC                         0x000002fc   Section        4  startup_lpc54114_cm4.o(.ARM.__at_0x02FC)
    .text                                    0x00000300   Section        0  uldiv.o(.text)
    .text                                    0x00000362   Section        0  memseta.o(.text)
    .text                                    0x00000386   Section        0  memcmp.o(.text)
    .text                                    0x000003a0   Section        0  dfixi.o(.text)
    .text                                    0x000003de   Section        0  dfixui.o(.text)
    .text                                    0x00000410   Section       48  cdrcmple.o(.text)
    .text                                    0x00000440   Section        0  llshl.o(.text)
    .text                                    0x0000045e   Section        0  llushr.o(.text)
    .text                                    0x00000480   Section       36  init.o(.text)
    .text                                    0x000004a4   Section        0  __dczerorl2.o(.text)
    i.BOARD_BootClockFROHF48M                0x000004fc   Section        0  clock_config.o(i.BOARD_BootClockFROHF48M)
    i.BOARD_InitDebugConsole                 0x00000544   Section        0  board.o(i.BOARD_InitDebugConsole)
    i.BOARD_InitPins_Core0                   0x000005a8   Section        0  pin_mux.o(i.BOARD_InitPins_Core0)
    i.CLOCK_AttachClk                        0x000005d4   Section        0  fsl_clock.o(i.CLOCK_AttachClk)
    i.CLOCK_EnableClock                      0x00000618   Section        0  hello_world_core0.o(i.CLOCK_EnableClock)
    CLOCK_EnableClock                        0x00000619   Thumb Code    28  hello_world_core0.o(i.CLOCK_EnableClock)
    i.CLOCK_EnableClock                      0x0000063c   Section        0  pin_mux.o(i.CLOCK_EnableClock)
    CLOCK_EnableClock                        0x0000063d   Thumb Code    28  pin_mux.o(i.CLOCK_EnableClock)
    i.CLOCK_GetAsyncApbClkFreq               0x00000660   Section        0  fsl_clock.o(i.CLOCK_GetAsyncApbClkFreq)
    i.CLOCK_GetCoreSysClkFreq                0x00000690   Section        0  fsl_clock.o(i.CLOCK_GetCoreSysClkFreq)
    i.CLOCK_GetExtClkFreq                    0x0000070c   Section        0  fsl_clock.o(i.CLOCK_GetExtClkFreq)
    i.CLOCK_GetFRGInputClock                 0x00000710   Section        0  fsl_clock.o(i.CLOCK_GetFRGInputClock)
    i.CLOCK_GetFlexCommClkFreq               0x00000750   Section        0  fsl_clock.o(i.CLOCK_GetFlexCommClkFreq)
    i.CLOCK_GetFreq                          0x000007ac   Section        0  fsl_clock.o(i.CLOCK_GetFreq)
    i.CLOCK_GetFro12MFreq                    0x00000958   Section        0  fsl_clock.o(i.CLOCK_GetFro12MFreq)
    i.CLOCK_GetFroHfFreq                     0x00000974   Section        0  fsl_clock.o(i.CLOCK_GetFroHfFreq)
    i.CLOCK_GetI2SMClkFreq                   0x000009b4   Section        0  fsl_clock.o(i.CLOCK_GetI2SMClkFreq)
    i.CLOCK_GetOsc32KFreq                    0x000009c0   Section        0  fsl_clock.o(i.CLOCK_GetOsc32KFreq)
    i.CLOCK_GetPllOutFreq                    0x000009c8   Section        0  fsl_clock.o(i.CLOCK_GetPllOutFreq)
    i.CLOCK_GetWdtOscFreq                    0x000009d4   Section        0  fsl_clock.o(i.CLOCK_GetWdtOscFreq)
    i.CLOCK_SetClkDiv                        0x00000a14   Section        0  fsl_clock.o(i.CLOCK_SetClkDiv)
    i.CLOCK_SetFLASHAccessCycles             0x00000a3c   Section        0  fsl_clock.o(i.CLOCK_SetFLASHAccessCycles)
    CLOCK_SetFLASHAccessCycles               0x00000a3d   Thumb Code    18  fsl_clock.o(i.CLOCK_SetFLASHAccessCycles)
    i.CLOCK_SetFLASHAccessCyclesForFreq      0x00000a54   Section        0  fsl_clock.o(i.CLOCK_SetFLASHAccessCyclesForFreq)
    i.CLOCK_SetupFROClocking                 0x00000aa8   Section        0  fsl_clock.o(i.CLOCK_SetupFROClocking)
    i.CTIMER0_DriverIRQHandler               0x00000b44   Section        0  fsl_ctimer.o(i.CTIMER0_DriverIRQHandler)
    i.CTIMER1_DriverIRQHandler               0x00000b4e   Section        0  fsl_ctimer.o(i.CTIMER1_DriverIRQHandler)
    i.CTIMER2_DriverIRQHandler               0x00000b58   Section        0  fsl_ctimer.o(i.CTIMER2_DriverIRQHandler)
    i.CTIMER3_DriverIRQHandler               0x00000b62   Section        0  fsl_ctimer.o(i.CTIMER3_DriverIRQHandler)
    i.CTIMER4_DriverIRQHandler               0x00000b6c   Section        0  fsl_ctimer.o(i.CTIMER4_DriverIRQHandler)
    i.CTIMER_ClearStatusFlags                0x00000b76   Section        0  fsl_ctimer.o(i.CTIMER_ClearStatusFlags)
    CTIMER_ClearStatusFlags                  0x00000b77   Thumb Code     4  fsl_ctimer.o(i.CTIMER_ClearStatusFlags)
    i.CTIMER_GenericIRQHandler               0x00000b7c   Section        0  fsl_ctimer.o(i.CTIMER_GenericIRQHandler)
    i.DMA0_DriverIRQHandler                  0x00000bf8   Section        0  fsl_dma.o(i.DMA0_DriverIRQHandler)
    i.DbgConsole_ConvertRadixNumToString     0x00000ca4   Section        0  fsl_debug_console.o(i.DbgConsole_ConvertRadixNumToString)
    DbgConsole_ConvertRadixNumToString       0x00000ca5   Thumb Code   168  fsl_debug_console.o(i.DbgConsole_ConvertRadixNumToString)
    i.DbgConsole_Init                        0x00000d4c   Section        0  fsl_debug_console.o(i.DbgConsole_Init)
    i.DbgConsole_Printf                      0x00000da4   Section        0  fsl_debug_console.o(i.DbgConsole_Printf)
    i.DbgConsole_PrintfFormattedData         0x00000dd8   Section        0  fsl_debug_console.o(i.DbgConsole_PrintfFormattedData)
    DbgConsole_PrintfFormattedData           0x00000dd9   Thumb Code   570  fsl_debug_console.o(i.DbgConsole_PrintfFormattedData)
    i.DbgConsole_PrintfPaddingCharacter      0x00001012   Section        0  fsl_debug_console.o(i.DbgConsole_PrintfPaddingCharacter)
    DbgConsole_PrintfPaddingCharacter        0x00001013   Thumb Code    40  fsl_debug_console.o(i.DbgConsole_PrintfPaddingCharacter)
    i.DbgConsole_Putchar                     0x0000103c   Section        0  fsl_debug_console.o(i.DbgConsole_Putchar)
    i.FLEXCOMM0_DriverIRQHandler             0x00001060   Section        0  fsl_flexcomm.o(i.FLEXCOMM0_DriverIRQHandler)
    i.FLEXCOMM1_DriverIRQHandler             0x000010e4   Section        0  fsl_flexcomm.o(i.FLEXCOMM1_DriverIRQHandler)
    i.FLEXCOMM2_DriverIRQHandler             0x00001168   Section        0  fsl_flexcomm.o(i.FLEXCOMM2_DriverIRQHandler)
    i.FLEXCOMM3_DriverIRQHandler             0x000011ec   Section        0  fsl_flexcomm.o(i.FLEXCOMM3_DriverIRQHandler)
    i.FLEXCOMM4_DriverIRQHandler             0x00001270   Section        0  fsl_flexcomm.o(i.FLEXCOMM4_DriverIRQHandler)
    i.FLEXCOMM5_DriverIRQHandler             0x000012f4   Section        0  fsl_flexcomm.o(i.FLEXCOMM5_DriverIRQHandler)
    i.FLEXCOMM5_IRQHandler                   0x00001378   Section        0  smart_plc.o(i.FLEXCOMM5_IRQHandler)
    i.FLEXCOMM6_DriverIRQHandler             0x000013ac   Section        0  fsl_flexcomm.o(i.FLEXCOMM6_DriverIRQHandler)
    i.FLEXCOMM7_DriverIRQHandler             0x00001430   Section        0  fsl_flexcomm.o(i.FLEXCOMM7_DriverIRQHandler)
    i.FLEXCOMM_GetInstance                   0x000014b4   Section        0  fsl_flexcomm.o(i.FLEXCOMM_GetInstance)
    i.FLEXCOMM_Init                          0x00001524   Section        0  fsl_flexcomm.o(i.FLEXCOMM_Init)
    i.FLEXCOMM_PeripheralIsPresent           0x00001574   Section        0  fsl_flexcomm.o(i.FLEXCOMM_PeripheralIsPresent)
    FLEXCOMM_PeripheralIsPresent             0x00001575   Thumb Code    58  fsl_flexcomm.o(i.FLEXCOMM_PeripheralIsPresent)
    i.FLEXCOMM_SetPeriph                     0x000015ae   Section        0  fsl_flexcomm.o(i.FLEXCOMM_SetPeriph)
    i.GPIO_ReadPinInput                      0x000015f2   Section        0  app_key.o(i.GPIO_ReadPinInput)
    GPIO_ReadPinInput                        0x000015f3   Thumb Code    10  app_key.o(i.GPIO_ReadPinInput)
    i.I2C_MasterClearStatusFlags             0x000015fc   Section        0  fsl_i2c.o(i.I2C_MasterClearStatusFlags)
    I2C_MasterClearStatusFlags               0x000015fd   Thumb Code    10  fsl_i2c.o(i.I2C_MasterClearStatusFlags)
    i.I2C_MasterEnable                       0x00001606   Section        0  fsl_i2c.o(i.I2C_MasterEnable)
    I2C_MasterEnable                         0x00001607   Thumb Code    34  fsl_i2c.o(i.I2C_MasterEnable)
    i.I2C_MasterGetDefaultConfig             0x00001628   Section        0  fsl_i2c.o(i.I2C_MasterGetDefaultConfig)
    i.I2C_MasterInit                         0x0000163c   Section        0  fsl_i2c.o(i.I2C_MasterInit)
    i.I2C_MasterSetBaudRate                  0x00001660   Section        0  fsl_i2c.o(i.I2C_MasterSetBaudRate)
    i.I2C_MasterStart                        0x000016e8   Section        0  fsl_i2c.o(i.I2C_MasterStart)
    i.I2C_MasterWriteBlocking                0x0000170c   Section        0  fsl_i2c.o(i.I2C_MasterWriteBlocking)
    i.I2C_PendingStatusWait                  0x00001818   Section        0  fsl_i2c.o(i.I2C_PendingStatusWait)
    I2C_PendingStatusWait                    0x00001819   Thumb Code    34  fsl_i2c.o(i.I2C_PendingStatusWait)
    i.INPUTMUX_AttachSignal                  0x0000183a   Section        0  fsl_inputmux.o(i.INPUTMUX_AttachSignal)
    i.INPUTMUX_Deinit                        0x00001848   Section        0  fsl_inputmux.o(i.INPUTMUX_Deinit)
    i.INPUTMUX_Init                          0x00001874   Section        0  fsl_inputmux.o(i.INPUTMUX_Init)
    i.IOCON_PinMuxSet                        0x000018a0   Section        0  pin_mux.o(i.IOCON_PinMuxSet)
    IOCON_PinMuxSet                          0x000018a1   Thumb Code    12  pin_mux.o(i.IOCON_PinMuxSet)
    i.IOCON_PinMuxSet                        0x000018ac   Section        0  app_lcd.o(i.IOCON_PinMuxSet)
    IOCON_PinMuxSet                          0x000018ad   Thumb Code    12  app_lcd.o(i.IOCON_PinMuxSet)
    i.IOCON_PinMuxSet                        0x000018b8   Section        0  app_spiflash.o(i.IOCON_PinMuxSet)
    IOCON_PinMuxSet                          0x000018b9   Thumb Code    12  app_spiflash.o(i.IOCON_PinMuxSet)
    i.MAILBOX_IRQHandler                     0x000018c4   Section        0  hello_world_core0.o(i.MAILBOX_IRQHandler)
    i.MAILBOX_Init                           0x00001990   Section        0  mcmgr_internal_core_api_lpc54114.o(i.MAILBOX_Init)
    MAILBOX_Init                             0x00001991   Thumb Code    36  mcmgr_internal_core_api_lpc54114.o(i.MAILBOX_Init)
    i.MCMGR_GetCurrentCore                   0x000019bc   Section        0  mcmgr.o(i.MCMGR_GetCurrentCore)
    i.MCMGR_Init                             0x000019cc   Section        0  mcmgr.o(i.MCMGR_Init)
    i.MCMGR_StartCore                        0x000019f8   Section        0  mcmgr.o(i.MCMGR_StartCore)
    i.NVIC_ClearPendingIRQ                   0x00001a34   Section        0  fsl_pint.o(i.NVIC_ClearPendingIRQ)
    NVIC_ClearPendingIRQ                     0x00001a35   Thumb Code    18  fsl_pint.o(i.NVIC_ClearPendingIRQ)
    i.PINT_EnableCallback                    0x00001a4c   Section        0  fsl_pint.o(i.PINT_EnableCallback)
    i.PINT_Init                              0x00001aec   Section        0  fsl_pint.o(i.PINT_Init)
    i.PINT_PatternMatchResetDetectLogic      0x00001ba0   Section        0  fsl_pint.o(i.PINT_PatternMatchResetDetectLogic)
    i.PINT_PinInterruptClrStatus             0x00001bb4   Section        0  fsl_pint.o(i.PINT_PinInterruptClrStatus)
    PINT_PinInterruptClrStatus               0x00001bb5   Thumb Code     8  fsl_pint.o(i.PINT_PinInterruptClrStatus)
    i.PINT_PinInterruptConfig                0x00001bbc   Section        0  fsl_pint.o(i.PINT_PinInterruptConfig)
    i.PIN_INT0_DriverIRQHandler              0x00001c7c   Section        0  fsl_pint.o(i.PIN_INT0_DriverIRQHandler)
    i.PIN_INT1_DriverIRQHandler              0x00001ca8   Section        0  fsl_pint.o(i.PIN_INT1_DriverIRQHandler)
    i.PIN_INT2_DriverIRQHandler              0x00001cd4   Section        0  fsl_pint.o(i.PIN_INT2_DriverIRQHandler)
    i.PIN_INT3_DriverIRQHandler              0x00001d00   Section        0  fsl_pint.o(i.PIN_INT3_DriverIRQHandler)
    i.PIN_INT4_DriverIRQHandler              0x00001d2c   Section        0  fsl_pint.o(i.PIN_INT4_DriverIRQHandler)
    i.PIN_INT5_DriverIRQHandler              0x00001d58   Section        0  fsl_pint.o(i.PIN_INT5_DriverIRQHandler)
    i.PIN_INT6_DriverIRQHandler              0x00001d84   Section        0  fsl_pint.o(i.PIN_INT6_DriverIRQHandler)
    i.PIN_INT7_DriverIRQHandler              0x00001db0   Section        0  fsl_pint.o(i.PIN_INT7_DriverIRQHandler)
    i.POWER_DisablePD                        0x00001ddc   Section        0  fsl_clock.o(i.POWER_DisablePD)
    POWER_DisablePD                          0x00001ddd   Thumb Code    14  fsl_clock.o(i.POWER_DisablePD)
    i.POWER_DisablePD                        0x00001df0   Section        0  clock_config.o(i.POWER_DisablePD)
    POWER_DisablePD                          0x00001df1   Thumb Code    14  clock_config.o(i.POWER_DisablePD)
    i.POWER_SetVoltageForFreq                0x00001e04   Section        0  fsl_power_lib.o(i.POWER_SetVoltageForFreq)
    i.POWER_setVdLevel                       0x00001f30   Section        0  fsl_power_lib.o(i.POWER_setVdLevel)
    POWER_setVdLevel                         0x00001f31   Thumb Code    14  fsl_power_lib.o(i.POWER_setVdLevel)
    i.RESET_ClearPeripheralReset             0x00001f44   Section        0  fsl_reset.o(i.RESET_ClearPeripheralReset)
    i.RESET_PeripheralReset                  0x00001fe4   Section        0  fsl_reset.o(i.RESET_PeripheralReset)
    i.RESET_SetPeripheralReset               0x00001ff8   Section        0  fsl_reset.o(i.RESET_SetPeripheralReset)
    i.SCT0_IRQHandler                        0x00002098   Section        0  fsl_sctimer.o(i.SCT0_IRQHandler)
    i.SCTIMER_CreateAndScheduleEvent         0x000020ac   Section        0  fsl_sctimer.o(i.SCTIMER_CreateAndScheduleEvent)
    i.SCTIMER_EventHandleIRQ                 0x00002284   Section        0  fsl_sctimer.o(i.SCTIMER_EventHandleIRQ)
    i.SCTIMER_GetDefaultConfig               0x000022d4   Section        0  fsl_sctimer.o(i.SCTIMER_GetDefaultConfig)
    i.SCTIMER_GetInstance                    0x00002340   Section        0  fsl_sctimer.o(i.SCTIMER_GetInstance)
    SCTIMER_GetInstance                      0x00002341   Thumb Code    50  fsl_sctimer.o(i.SCTIMER_GetInstance)
    i.SCTIMER_Init                           0x000023d0   Section        0  fsl_sctimer.o(i.SCTIMER_Init)
    i.SCTIMER_SetupOutputClearAction         0x00002518   Section        0  fsl_sctimer.o(i.SCTIMER_SetupOutputClearAction)
    SCTIMER_SetupOutputClearAction           0x00002519   Thumb Code    30  fsl_sctimer.o(i.SCTIMER_SetupOutputClearAction)
    i.SCTIMER_SetupOutputSetAction           0x00002536   Section        0  fsl_sctimer.o(i.SCTIMER_SetupOutputSetAction)
    SCTIMER_SetupOutputSetAction             0x00002537   Thumb Code    26  fsl_sctimer.o(i.SCTIMER_SetupOutputSetAction)
    i.SCTIMER_SetupPwm                       0x00002550   Section        0  fsl_sctimer.o(i.SCTIMER_SetupPwm)
    i.SCTIMER_StartTimer                     0x00002764   Section        0  app_beep.o(i.SCTIMER_StartTimer)
    SCTIMER_StartTimer                       0x00002765   Thumb Code    30  app_beep.o(i.SCTIMER_StartTimer)
    i.SPI_Enable                             0x00002782   Section        0  fsl_spi.o(i.SPI_Enable)
    SPI_Enable                               0x00002783   Thumb Code    30  fsl_spi.o(i.SPI_Enable)
    i.SPI_GetInstance                        0x000027a0   Section        0  fsl_spi.o(i.SPI_GetInstance)
    i.SPI_MasterGetDefaultConfig             0x0000280c   Section        0  fsl_spi.o(i.SPI_MasterGetDefaultConfig)
    i.SPI_MasterInit                         0x0000288c   Section        0  fsl_spi.o(i.SPI_MasterInit)
    i.SPI_MasterSetBaud                      0x00002a48   Section        0  fsl_spi.o(i.SPI_MasterSetBaud)
    i.SPI_MasterTransferBlocking             0x00002b18   Section        0  fsl_spi.o(i.SPI_MasterTransferBlocking)
    i.SysTick_Handler                        0x00002da4   Section        0  app_interrupt.o(i.SysTick_Handler)
    i.SystemInit                             0x00002dec   Section        0  system_lpc54114_cm4.o(i.SystemInit)
    i.USART5_InitPins                        0x00002e14   Section        0  pin_mux.o(i.USART5_InitPins)
    i.USART_GetDefaultConfig                 0x00002e40   Section        0  fsl_usart.o(i.USART_GetDefaultConfig)
    i.USART_Init                             0x00002eb8   Section        0  fsl_usart.o(i.USART_Init)
    i.USART_ReadBlocking                     0x00003010   Section        0  fsl_usart.o(i.USART_ReadBlocking)
    i.USART_SetBaudRate                      0x00003128   Section        0  fsl_usart.o(i.USART_SetBaudRate)
    i.USART_WriteBlocking                    0x00003238   Section        0  fsl_usart.o(i.USART_WriteBlocking)
    i.__aeabi_assert                         0x000032f0   Section        0  fsl_common.o(i.__aeabi_assert)
    i.__scatterload_copy                     0x00003334   Section       14  handlers.o(i.__scatterload_copy)
    i.__scatterload_zeroinit                 0x00003342   Section       14  handlers.o(i.__scatterload_zeroinit)
    i.actor_alarm_data_init                  0x00003350   Section        0  auto_report.o(i.actor_alarm_data_init)
    actor_alarm_data_init                    0x00003351   Thumb Code    12  auto_report.o(i.actor_alarm_data_init)
    i.add_temp_handle                        0x0000335c   Section        0  app_dev_ctrl.o(i.add_temp_handle)
    i.alloc_a_slot                           0x000033d4   Section        0  alloter.o(i.alloc_a_slot)
    alloc_a_slot                             0x000033d5   Thumb Code    48  alloter.o(i.alloc_a_slot)
    i.app_init                               0x00003408   Section        0  app_dev_ctrl.o(i.app_init)
    i.auto_report_init                       0x00003418   Section        0  auto_report.o(i.auto_report_init)
    i.auto_report_sec_task                   0x00003490   Section        0  auto_report.o(i.auto_report_sec_task)
    i.auto_speed_display                     0x000034b4   Section        0  app_dev_ctrl.o(i.auto_speed_display)
    i.backlight_ctrl                         0x00003510   Section        0  app_dev_ctrl.o(i.backlight_ctrl)
    i.backlight_init                         0x00003538   Section        0  app_lcd.o(i.backlight_init)
    i.backlight_off                          0x00003568   Section        0  app_lcd.o(i.backlight_off)
    i.backligt_on                            0x00003574   Section        0  app_lcd.o(i.backligt_on)
    i.bcd2hex                                0x00003580   Section        0  utils.o(i.bcd2hex)
    i.beep_ctrl                              0x000035b4   Section        0  app_dev_ctrl.o(i.beep_ctrl)
    i.beep_init                              0x000035d8   Section        0  app_beep.o(i.beep_init)
    i.beep_off                               0x00003674   Section        0  app_beep.o(i.beep_off)
    i.beep_on                                0x000036c8   Section        0  app_beep.o(i.beep_on)
    i.bu9796Init                             0x0000371c   Section        0  app_lcd.o(i.bu9796Init)
    i.bu9796WriteByte                        0x00003778   Section        0  app_lcd.o(i.bu9796WriteByte)
    i.buffer2buff                            0x000037a0   Section        0  app_lcd.o(i.buffer2buff)
    i.check_actor_data                       0x000037e4   Section        0  auto_report.o(i.check_actor_data)
    check_actor_data                         0x000037e5   Thumb Code   128  auto_report.o(i.check_actor_data)
    i.check_alarm_data                       0x00003874   Section        0  auto_report.o(i.check_alarm_data)
    check_alarm_data                         0x00003875   Thumb Code    78  auto_report.o(i.check_alarm_data)
    i.check_alive                            0x000038cc   Section        0  app_dev_ctrl.o(i.check_alive)
    i.check_alive0                           0x0000393c   Section        0  app_dev_ctrl.o(i.check_alive0)
    i.check_fixed_fre_data                   0x00003984   Section        0  auto_report.o(i.check_fixed_fre_data)
    i.check_fixed_len_data                   0x00003a0c   Section        0  auto_report.o(i.check_fixed_len_data)
    i.check_sole_encode                      0x00003ab8   Section        0  smart_plc.o(i.check_sole_encode)
    check_sole_encode                        0x00003ab9   Thumb Code    40  smart_plc.o(i.check_sole_encode)
    i.checksum                               0x00003af8   Section        0  utils.o(i.checksum)
    i.chg_state                              0x00003b10   Section        0  smart_plc.o(i.chg_state)
    i.chk_pwd                                0x00003b6c   Section        0  protocol_smart.o(i.chk_pwd)
    chk_pwd                                  0x00003b6d   Thumb Code    44  protocol_smart.o(i.chk_pwd)
    i.clear_chn                              0x00003b9c   Section        0  auto_report.o(i.clear_chn)
    i.clear_equipment_gid_flag               0x00003bbc   Section        0  auto_report.o(i.clear_equipment_gid_flag)
    i.clear_iss                              0x00003bcc   Section        0  app_key.o(i.clear_iss)
    i.clear_subs                             0x00003bdc   Section        0  auto_report.o(i.clear_subs)
    clear_subs                               0x00003bdd   Thumb Code    46  auto_report.o(i.clear_subs)
    i.clear_uart                             0x00003c10   Section        0  smart_plc.o(i.clear_uart)
    i.clr_display_group_sig                  0x00003c24   Section        0  app_lcd.o(i.clr_display_group_sig)
    i.clr_display_signal                     0x00003c84   Section        0  app_lcd.o(i.clr_display_signal)
    i.clr_num_display                        0x00003ce4   Section        0  app_lcd.o(i.clr_num_display)
    i.clr_position_num                       0x00003d3c   Section        0  app_lcd.o(i.clr_position_num)
    i.code_body                              0x00003d56   Section        0  protocol_smart.o(i.code_body)
    i.code_frame                             0x00003d94   Section        0  protocol_smart.o(i.code_frame)
    i.code_intype_body                       0x00003e34   Section        0  auto_report_app.o(i.code_intype_body)
    i.code_local_frame                       0x00003e76   Section        0  protocol_smart.o(i.code_local_frame)
    i.dec_temp_handle                        0x00003ea0   Section        0  app_dev_ctrl.o(i.dec_temp_handle)
    i.dev_init                               0x00003f18   Section        0  app_dev_ctrl.o(i.dev_init)
    i.dev_type_get                           0x00003ffc   Section        0  app_dev_ctrl.o(i.dev_type_get)
    i.display_fix_signal                     0x0000401c   Section        0  app_lcd.o(i.display_fix_signal)
    i.display_group_sig                      0x00004074   Section        0  app_lcd.o(i.display_group_sig)
    i.display_signal                         0x00004110   Section        0  app_lcd.o(i.display_signal)
    i.do_cmd                                 0x00004170   Section        0  protocol_smart.o(i.do_cmd)
    i.do_plc_register                        0x00004290   Section        0  smart_plc.o(i.do_plc_register)
    do_plc_register                          0x00004291   Thumb Code    56  smart_plc.o(i.do_plc_register)
    i.do_set_unlink                          0x000042fc   Section        0  smart_plc.o(i.do_set_unlink)
    do_set_unlink                            0x000042fd   Thumb Code    24  smart_plc.o(i.do_set_unlink)
    i.empty_a_chn_slot                       0x00004330   Section        0  smart_plc.o(i.empty_a_chn_slot)
    empty_a_chn_slot                         0x00004331   Thumb Code    28  smart_plc.o(i.empty_a_chn_slot)
    i.find_sub_from_seq                      0x0000434c   Section        0  auto_report.o(i.find_sub_from_seq)
    find_sub_from_seq                        0x0000434d   Thumb Code    52  auto_report.o(i.find_sub_from_seq)
    i.find_sub_from_type                     0x00004384   Section        0  auto_report.o(i.find_sub_from_type)
    find_sub_from_type                       0x00004385   Thumb Code    44  auto_report.o(i.find_sub_from_type)
    i.finish_power_on_report                 0x000043b4   Section        0  auto_report.o(i.finish_power_on_report)
    finish_power_on_report                   0x000043b5   Thumb Code    38  auto_report.o(i.finish_power_on_report)
    i.flash_transfer_cb                      0x000043e4   Section        0  app_spiflash.o(i.flash_transfer_cb)
    i.form_error_body                        0x00004422   Section        0  protocol_smart.o(i.form_error_body)
    form_error_body                          0x00004423   Thumb Code    42  protocol_smart.o(i.form_error_body)
    i.frame_handle                           0x0000444c   Section        0  smart_plc.o(i.frame_handle)
    frame_handle                             0x0000444d   Thumb Code    88  smart_plc.o(i.frame_handle)
    i.free_a_slot                            0x000044d0   Section        0  alloter.o(i.free_a_slot)
    free_a_slot                              0x000044d1   Thumb Code    20  alloter.o(i.free_a_slot)
    i.get_1byte_bit1_number                  0x000044e8   Section        0  auto_report.o(i.get_1byte_bit1_number)
    i.get_air_coner_switch                   0x00004508   Section        0  protocol_smart.o(i.get_air_coner_switch)
    get_air_coner_switch                     0x00004509   Thumb Code    32  protocol_smart.o(i.get_air_coner_switch)
    i.get_app_comm_ver                       0x0000452c   Section        0  protocol_smart.o(i.get_app_comm_ver)
    get_app_comm_ver                         0x0000452d   Thumb Code    56  protocol_smart.o(i.get_app_comm_ver)
    i.get_chn                                0x00004574   Section        0  auto_report.o(i.get_chn)
    i.get_chn_bytes                          0x00004590   Section        0  alloter.o(i.get_chn_bytes)
    i.get_core1_image_size                   0x00004664   Section        0  hello_world_core0.o(i.get_core1_image_size)
    i.get_dbg_info                           0x0000466c   Section        0  protocol_smart.o(i.get_dbg_info)
    get_dbg_info                             0x0000466d   Thumb Code   154  protocol_smart.o(i.get_dbg_info)
    i.get_dev_key                            0x0000470c   Section        0  protocol_smart.o(i.get_dev_key)
    get_dev_key                              0x0000470d   Thumb Code    18  protocol_smart.o(i.get_dev_key)
    i.get_dev_sn                             0x00004724   Section        0  protocol_smart.o(i.get_dev_sn)
    get_dev_sn                               0x00004725   Thumb Code    22  protocol_smart.o(i.get_dev_sn)
    i.get_dev_soft_ver                       0x00004740   Section        0  protocol_smart.o(i.get_dev_soft_ver)
    i.get_device_type                        0x00004778   Section        0  protocol_smart.o(i.get_device_type)
    i.get_different_delay_time               0x00004790   Section        0  auto_report.o(i.get_different_delay_time)
    get_different_delay_time                 0x00004791   Thumb Code    54  auto_report.o(i.get_different_delay_time)
    i.get_id                                 0x000047cc   Section        0  smart_plc.o(i.get_id)
    i.get_last_bit_seqno                     0x000047de   Section        0  alloter.o(i.get_last_bit_seqno)
    i.get_le_val                             0x000047fa   Section        0  utils.o(i.get_le_val)
    i.get_low_temp_protect                   0x00004814   Section        0  protocol_smart.o(i.get_low_temp_protect)
    get_low_temp_protect                     0x00004815   Thumb Code    32  protocol_smart.o(i.get_low_temp_protect)
    i.get_min_freq                           0x00004838   Section        0  auto_report.o(i.get_min_freq)
    i.get_mode_ctrl                          0x0000487c   Section        0  protocol_smart.o(i.get_mode_ctrl)
    get_mode_ctrl                            0x0000487d   Thumb Code    32  protocol_smart.o(i.get_mode_ctrl)
    i.get_option                             0x000048a0   Section        0  protocol_smart.o(i.get_option)
    i.get_panel_lock                         0x000048d8   Section        0  protocol_smart.o(i.get_panel_lock)
    get_panel_lock                           0x000048d9   Thumb Code    32  protocol_smart.o(i.get_panel_lock)
    i.get_plc_state                          0x000048fc   Section        0  smart_plc.o(i.get_plc_state)
    get_plc_state                            0x000048fd   Thumb Code    36  smart_plc.o(i.get_plc_state)
    i.get_power_on_delay_time                0x00004924   Section        0  protocol_smart.o(i.get_power_on_delay_time)
    get_power_on_delay_time                  0x00004925   Thumb Code    30  protocol_smart.o(i.get_power_on_delay_time)
    i.get_reg                                0x00004948   Section        0  smart_plc.o(i.get_reg)
    get_reg                                  0x00004949   Thumb Code   130  smart_plc.o(i.get_reg)
    i.get_report_data_callback               0x00004a08   Section        0  auto_report_app.o(i.get_report_data_callback)
    i.get_report_freq                        0x00004d68   Section        0  protocol_smart.o(i.get_report_freq)
    get_report_freq                          0x00004d69   Thumb Code    80  protocol_smart.o(i.get_report_freq)
    i.get_report_step                        0x00004dbc   Section        0  protocol_smart.o(i.get_report_step)
    get_report_step                          0x00004dbd   Thumb Code    80  protocol_smart.o(i.get_report_step)
    i.get_report_switch                      0x00004e10   Section        0  protocol_smart.o(i.get_report_switch)
    get_report_switch                        0x00004e11   Thumb Code    94  protocol_smart.o(i.get_report_switch)
    i.get_sensor_from_type                   0x00004e74   Section        0  auto_report.o(i.get_sensor_from_type)
    i.get_sensor_type                        0x00004ea0   Section        0  auto_report_app.o(i.get_sensor_type)
    get_sensor_type                          0x00004ea1   Thumb Code    22  auto_report_app.o(i.get_sensor_type)
    i.get_sensor_value                       0x00004eb8   Section        0  protocol_smart.o(i.get_sensor_value)
    get_sensor_value                         0x00004eb9   Thumb Code   134  protocol_smart.o(i.get_sensor_value)
    i.get_smart_frame                        0x00004f44   Section        0  protocol_smart.o(i.get_smart_frame)
    i.get_speed_ctrl_mode                    0x00004fa4   Section        0  protocol_smart.o(i.get_speed_ctrl_mode)
    get_speed_ctrl_mode                      0x00004fa5   Thumb Code    32  protocol_smart.o(i.get_speed_ctrl_mode)
    i.get_temp_range                         0x00004fc8   Section        0  protocol_smart.o(i.get_temp_range)
    get_temp_range                           0x00004fc9   Thumb Code   106  protocol_smart.o(i.get_temp_range)
    i.get_temp_set                           0x00005038   Section        0  protocol_smart.o(i.get_temp_set)
    get_temp_set                             0x00005039   Thumb Code    30  protocol_smart.o(i.get_temp_set)
    i.get_temp_set_E002                      0x0000505c   Section        0  protocol_smart.o(i.get_temp_set_E002)
    get_temp_set_E002                        0x0000505d   Thumb Code    38  protocol_smart.o(i.get_temp_set_E002)
    i.get_time_from_trycnt                   0x00005088   Section        0  auto_report.o(i.get_time_from_trycnt)
    get_time_from_trycnt                     0x00005089   Thumb Code    58  auto_report.o(i.get_time_from_trycnt)
    i.get_win_speed_ctrl                     0x000050c4   Section        0  protocol_smart.o(i.get_win_speed_ctrl)
    get_win_speed_ctrl                       0x000050c5   Thumb Code    76  protocol_smart.o(i.get_win_speed_ctrl)
    i.hex2bcd                                0x00005114   Section        0  utils.o(i.hex2bcd)
    i.init_alarm_data                        0x00005154   Section        0  auto_report_app.o(i.init_alarm_data)
    i.init_chn_pool_mgr                      0x00005178   Section        0  alloter.o(i.init_chn_pool_mgr)
    i.init_relay_data                        0x0000518c   Section        0  auto_report_app.o(i.init_relay_data)
    i.init_sensor_data                       0x00005244   Section        0  auto_report_app.o(i.init_sensor_data)
    i.init_uart_infor                        0x000052e8   Section        0  smart_plc.o(i.init_uart_infor)
    i.is_all_bcd                             0x00005314   Section        0  utils.o(i.is_all_bcd)
    i.is_all_xx                              0x0000533c   Section        0  utils.o(i.is_all_xx)
    i.is_gid_equal                           0x00005358   Section        0  smart_plc.o(i.is_gid_equal)
    i.judge_process                          0x000054e0   Section        0  auto_report.o(i.judge_process)
    judge_process                            0x000054e1   Thumb Code    36  auto_report.o(i.judge_process)
    i.key_init                               0x00005508   Section        0  app_key.o(i.key_init)
    i.key_scan                               0x00005584   Section        0  app_key.o(i.key_scan)
    i.lcdReload                              0x0000573c   Section        0  app_lcd.o(i.lcdReload)
    i.local_ack_opt                          0x00005770   Section        0  smart_plc.o(i.local_ack_opt)
    i.local_frame_opt                        0x00005814   Section        0  smart_plc.o(i.local_frame_opt)
    i.main                                   0x00005884   Section        0  hello_world_core0.o(i.main)
    i.mcmgr_get_core_property_lpc54114       0x00005a54   Section        0  mcmgr_internal_core_api_lpc54114.o(i.mcmgr_get_core_property_lpc54114)
    mcmgr_get_core_property_lpc54114         0x00005a55   Thumb Code     8  mcmgr_internal_core_api_lpc54114.o(i.mcmgr_get_core_property_lpc54114)
    i.mcmgr_get_current_core_lpc54114        0x00005a5c   Section        0  mcmgr_internal_core_api_lpc54114.o(i.mcmgr_get_current_core_lpc54114)
    mcmgr_get_current_core_lpc54114          0x00005a5d   Thumb Code     4  mcmgr_internal_core_api_lpc54114.o(i.mcmgr_get_current_core_lpc54114)
    i.mcmgr_get_startup_data_lpc54114        0x00005a60   Section        0  mcmgr_internal_core_api_lpc54114.o(i.mcmgr_get_startup_data_lpc54114)
    mcmgr_get_startup_data_lpc54114          0x00005a61   Thumb Code    98  mcmgr_internal_core_api_lpc54114.o(i.mcmgr_get_startup_data_lpc54114)
    i.mcmgr_init_lpc54114                    0x00005acc   Section        0  mcmgr_internal_core_api_lpc54114.o(i.mcmgr_init_lpc54114)
    mcmgr_init_lpc54114                      0x00005acd   Thumb Code    38  mcmgr_internal_core_api_lpc54114.o(i.mcmgr_init_lpc54114)
    i.mcmgr_load_app_lpc54114                0x00005af8   Section        0  mcmgr_internal_core_api_lpc54114.o(i.mcmgr_load_app_lpc54114)
    mcmgr_load_app_lpc54114                  0x00005af9   Thumb Code     6  mcmgr_internal_core_api_lpc54114.o(i.mcmgr_load_app_lpc54114)
    i.mcmgr_signal_ready_lpc54114            0x00005b00   Section        0  mcmgr_internal_core_api_lpc54114.o(i.mcmgr_signal_ready_lpc54114)
    mcmgr_signal_ready_lpc54114              0x00005b01   Thumb Code    24  mcmgr_internal_core_api_lpc54114.o(i.mcmgr_signal_ready_lpc54114)
    i.mcmgr_start_core_lpc54114              0x00005b1c   Section        0  mcmgr_internal_core_api_lpc54114.o(i.mcmgr_start_core_lpc54114)
    mcmgr_start_core_lpc54114                0x00005b1d   Thumb Code   148  mcmgr_internal_core_api_lpc54114.o(i.mcmgr_start_core_lpc54114)
    i.mcmgr_stop_core_lpc54114               0x00005c34   Section        0  mcmgr_internal_core_api_lpc54114.o(i.mcmgr_stop_core_lpc54114)
    mcmgr_stop_core_lpc54114                 0x00005c35   Thumb Code    34  mcmgr_internal_core_api_lpc54114.o(i.mcmgr_stop_core_lpc54114)
    i.mode_handle                            0x00005c60   Section        0  app_dev_ctrl.o(i.mode_handle)
    i.mode_sig_display                       0x00005ca0   Section        0  app_lcd.o(i.mode_sig_display)
    i.mx25r_cmd_rdid                         0x00005cf2   Section        0  app_spiflash.o(i.mx25r_cmd_rdid)
    i.mx25r_cmd_rdsr                         0x00005d22   Section        0  app_spiflash.o(i.mx25r_cmd_rdsr)
    i.mx25r_cmd_read                         0x00005d52   Section        0  app_spiflash.o(i.mx25r_cmd_read)
    i.mx25r_cmd_sector_erase                 0x00005da2   Section        0  app_spiflash.o(i.mx25r_cmd_sector_erase)
    i.mx25r_cmd_wrdi                         0x00005e04   Section        0  app_spiflash.o(i.mx25r_cmd_wrdi)
    i.mx25r_cmd_wren                         0x00005e22   Section        0  app_spiflash.o(i.mx25r_cmd_wren)
    i.mx25r_cmd_write                        0x00005e40   Section        0  app_spiflash.o(i.mx25r_cmd_write)
    i.mx25r_init                             0x00005ed6   Section        0  app_spiflash.o(i.mx25r_init)
    i.num_display_ctrl                       0x00005ee0   Section        0  app_lcd.o(i.num_display_ctrl)
    i.on_off_handle                          0x00005f54   Section        0  app_dev_ctrl.o(i.on_off_handle)
    i.on_uart_rxchar                         0x00005fc0   Section        0  app_dev_ctrl.o(i.on_uart_rxchar)
    on_uart_rxchar                           0x00005fc1   Thumb Code   108  app_dev_ctrl.o(i.on_uart_rxchar)
    i.peek_chn                               0x00006050   Section        0  auto_report.o(i.peek_chn)
    i.peek_chn_bytes                         0x0000606c   Section        0  alloter.o(i.peek_chn_bytes)
    i.pint_intr_callback                     0x000060c4   Section        0  app_key.o(i.pint_intr_callback)
    i.plc_init                               0x000061c4   Section        0  smart_plc.o(i.plc_init)
    i.plc_machine_opt                        0x000061d4   Section        0  smart_plc.o(i.plc_machine_opt)
    i.plc_reset_init                         0x000061fc   Section        0  smart_plc.o(i.plc_reset_init)
    i.plc_reset_off                          0x00006234   Section        0  smart_plc.o(i.plc_reset_off)
    i.plc_reset_on                           0x00006240   Section        0  smart_plc.o(i.plc_reset_on)
    i.poweron_time_count                     0x0000624c   Section        0  auto_report.o(i.poweron_time_count)
    poweron_time_count                       0x0000624d   Thumb Code    60  auto_report.o(i.poweron_time_count)
    i.put_chn                                0x00006290   Section        0  auto_report.o(i.put_chn)
    i.put_chn_bytes                          0x000062ac   Section        0  alloter.o(i.put_chn_bytes)
    i.put_le_val                             0x00006370   Section        0  utils.o(i.put_le_val)
    i.rd_gw_aid                              0x00006384   Section        0  smart_plc.o(i.rd_gw_aid)
    rd_gw_aid                                0x00006385   Thumb Code   150  smart_plc.o(i.rd_gw_aid)
    i.rd_plc_eid                             0x00006468   Section        0  smart_plc.o(i.rd_plc_eid)
    rd_plc_eid                               0x00006469   Thumb Code   150  smart_plc.o(i.rd_plc_eid)
    i.rd_plc_sid                             0x00006554   Section        0  smart_plc.o(i.rd_plc_sid)
    rd_plc_sid                               0x00006555   Thumb Code   166  smart_plc.o(i.rd_plc_sid)
    i.read_si7020_data                       0x00006644   Section        0  hello_world_core0.o(i.read_si7020_data)
    i.realy_init                             0x00006760   Section        0  app_realy.o(i.realy_init)
    i.realy_off                              0x000067e0   Section        0  app_realy.o(i.realy_off)
    i.realy_on                               0x00006808   Section        0  app_realy.o(i.realy_on)
    i.realy_toggle                           0x00006830   Section        0  app_realy.o(i.realy_toggle)
    i.register_report                        0x0000685c   Section        0  auto_report.o(i.register_report)
    i.register_time_count                    0x000068a0   Section        0  auto_report.o(i.register_time_count)
    register_time_count                      0x000068a1   Thumb Code    50  auto_report.o(i.register_time_count)
    i.relay_ctrl                             0x000068dc   Section        0  app_realy.o(i.relay_ctrl)
    i.reload_freq_infor                      0x000069ac   Section        0  auto_report.o(i.reload_freq_infor)
    i.remote_frame_opt                       0x000069c0   Section        0  smart_plc.o(i.remote_frame_opt)
    i.report_alloter_init                    0x00006a54   Section        0  auto_report.o(i.report_alloter_init)
    report_alloter_init                      0x00006a55   Thumb Code    38  auto_report.o(i.report_alloter_init)
    i.report_finish_refresh_infor            0x00006a80   Section        0  auto_report_app.o(i.report_finish_refresh_infor)
    i.report_frame_ack                       0x00006b30   Section        0  auto_report.o(i.report_frame_ack)
    i.report_time_hook                       0x00006be4   Section        0  auto_report.o(i.report_time_hook)
    report_time_hook                         0x00006be5   Thumb Code   226  auto_report.o(i.report_time_hook)
    i.reset_plc                              0x00006cf8   Section        0  smart_plc.o(i.reset_plc)
    reset_plc                                0x00006cf9   Thumb Code    74  smart_plc.o(i.reset_plc)
    i.save_subs_infor                        0x00006d8c   Section        0  auto_report.o(i.save_subs_infor)
    save_subs_infor                          0x00006d8d   Thumb Code   112  auto_report.o(i.save_subs_infor)
    i.send_actor_count                       0x00006e14   Section        0  auto_report.o(i.send_actor_count)
    send_actor_count                         0x00006e15   Thumb Code    82  auto_report.o(i.send_actor_count)
    i.send_alarm_count                       0x00006e94   Section        0  auto_report.o(i.send_alarm_count)
    send_alarm_count                         0x00006e95   Thumb Code    22  auto_report.o(i.send_alarm_count)
    i.send_fixed_fre_count                   0x00006eb0   Section        0  auto_report.o(i.send_fixed_fre_count)
    i.send_fixed_len_count                   0x00006eec   Section        0  auto_report.o(i.send_fixed_len_count)
    i.send_local_frame                       0x00006f28   Section        0  smart_plc.o(i.send_local_frame)
    i.send_max_retry                         0x00006f6c   Section        0  auto_report.o(i.send_max_retry)
    send_max_retry                           0x00006f6d   Thumb Code    20  auto_report.o(i.send_max_retry)
    i.send_over                              0x00006f80   Section        0  auto_report.o(i.send_over)
    send_over                                0x00006f81   Thumb Code    56  auto_report.o(i.send_over)
    i.send_power_or_register_report          0x00006fbc   Section        0  auto_report.o(i.send_power_or_register_report)
    send_power_or_register_report            0x00006fbd   Thumb Code    92  auto_report.o(i.send_power_or_register_report)
    i.send_report_frame                      0x00007020   Section        0  auto_report.o(i.send_report_frame)
    send_report_frame                        0x00007021   Thumb Code    66  auto_report.o(i.send_report_frame)
    i.send_retry                             0x00007064   Section        0  auto_report.o(i.send_retry)
    send_retry                               0x00007065   Thumb Code    86  auto_report.o(i.send_retry)
    i.send_to_both_subs_gateway              0x000070c4   Section        0  auto_report.o(i.send_to_both_subs_gateway)
    send_to_both_subs_gateway                0x000070c5   Thumb Code   210  auto_report.o(i.send_to_both_subs_gateway)
    i.send_to_gateway                        0x00007204   Section        0  auto_report.o(i.send_to_gateway)
    send_to_gateway                          0x00007205   Thumb Code    90  auto_report.o(i.send_to_gateway)
    i.send_to_only_gateway                   0x00007284   Section        0  auto_report.o(i.send_to_only_gateway)
    send_to_only_gateway                     0x00007285   Thumb Code    26  auto_report.o(i.send_to_only_gateway)
    i.send_to_only_subs                      0x000072a4   Section        0  auto_report.o(i.send_to_only_subs)
    send_to_only_subs                        0x000072a5   Thumb Code   134  auto_report.o(i.send_to_only_subs)
    i.sensor_need_report_or_not              0x00007350   Section        0  auto_report.o(i.sensor_need_report_or_not)
    sensor_need_report_or_not                0x00007351   Thumb Code   354  auto_report.o(i.sensor_need_report_or_not)
    i.set_aid                                0x00007554   Section        0  smart_plc.o(i.set_aid)
    set_aid                                  0x00007555   Thumb Code    40  smart_plc.o(i.set_aid)
    i.set_air_coner_switch                   0x0000759c   Section        0  protocol_smart.o(i.set_air_coner_switch)
    set_air_coner_switch                     0x0000759d   Thumb Code    58  protocol_smart.o(i.set_air_coner_switch)
    i.set_dbg_info                           0x000075e0   Section        0  protocol_smart.o(i.set_dbg_info)
    set_dbg_info                             0x000075e1   Thumb Code   188  protocol_smart.o(i.set_dbg_info)
    i.set_group_parameter                    0x000076a4   Section        0  smart_plc.o(i.set_group_parameter)
    i.set_low_temp_protect                   0x00007740   Section        0  protocol_smart.o(i.set_low_temp_protect)
    set_low_temp_protect                     0x00007741   Thumb Code    58  protocol_smart.o(i.set_low_temp_protect)
    i.set_mode_ctrl                          0x00007784   Section        0  protocol_smart.o(i.set_mode_ctrl)
    set_mode_ctrl                            0x00007785   Thumb Code    58  protocol_smart.o(i.set_mode_ctrl)
    i.set_panel_lock                         0x000077c8   Section        0  protocol_smart.o(i.set_panel_lock)
    set_panel_lock                           0x000077c9   Thumb Code    58  protocol_smart.o(i.set_panel_lock)
    i.set_panid                              0x0000780c   Section        0  smart_plc.o(i.set_panid)
    set_panid                                0x0000780d   Thumb Code    66  smart_plc.o(i.set_panid)
    i.set_power_on_delay_time                0x00007894   Section        0  protocol_smart.o(i.set_power_on_delay_time)
    set_power_on_delay_time                  0x00007895   Thumb Code    58  protocol_smart.o(i.set_power_on_delay_time)
    i.set_register                           0x000078d8   Section        0  smart_plc.o(i.set_register)
    set_register                             0x000078d9   Thumb Code    34  smart_plc.o(i.set_register)
    i.set_report_freq                        0x0000791c   Section        0  protocol_smart.o(i.set_report_freq)
    set_report_freq                          0x0000791d   Thumb Code    86  protocol_smart.o(i.set_report_freq)
    i.set_report_step                        0x0000797c   Section        0  protocol_smart.o(i.set_report_step)
    set_report_step                          0x0000797d   Thumb Code   164  protocol_smart.o(i.set_report_step)
    i.set_report_switch                      0x00007a24   Section        0  protocol_smart.o(i.set_report_switch)
    set_report_switch                        0x00007a25   Thumb Code   104  protocol_smart.o(i.set_report_switch)
    i.set_ret_frame                          0x00007a94   Section        0  smart_plc.o(i.set_ret_frame)
    i.set_speed_ctrl_mode                    0x00007ad0   Section        0  protocol_smart.o(i.set_speed_ctrl_mode)
    set_speed_ctrl_mode                      0x00007ad1   Thumb Code    58  protocol_smart.o(i.set_speed_ctrl_mode)
    i.set_temp_range                         0x00007b14   Section        0  protocol_smart.o(i.set_temp_range)
    set_temp_range                           0x00007b15   Thumb Code   262  protocol_smart.o(i.set_temp_range)
    i.set_temp_set                           0x00007c24   Section        0  protocol_smart.o(i.set_temp_set)
    set_temp_set                             0x00007c25   Thumb Code    96  protocol_smart.o(i.set_temp_set)
    i.set_temp_set_E002                      0x00007c8c   Section        0  protocol_smart.o(i.set_temp_set_E002)
    set_temp_set_E002                        0x00007c8d   Thumb Code   102  protocol_smart.o(i.set_temp_set_E002)
    i.set_unlink                             0x00007cfc   Section        0  smart_plc.o(i.set_unlink)
    set_unlink                               0x00007cfd   Thumb Code    34  smart_plc.o(i.set_unlink)
    i.set_win_speed_ctrl                     0x00007d40   Section        0  protocol_smart.o(i.set_win_speed_ctrl)
    set_win_speed_ctrl                       0x00007d41   Thumb Code    96  protocol_smart.o(i.set_win_speed_ctrl)
    i.speed_realy_ctrl                       0x00007da8   Section        0  app_dev_ctrl.o(i.speed_realy_ctrl)
    i.speed_sig_display                      0x00007e28   Section        0  app_lcd.o(i.speed_sig_display)
    i.spiflash_init                          0x00007e98   Section        0  app_spiflash.o(i.spiflash_init)
    i.start_fixed_report_save                0x00007f60   Section        0  auto_report.o(i.start_fixed_report_save)
    start_fixed_report_save                  0x00007f61   Thumb Code    30  auto_report.o(i.start_fixed_report_save)
    i.start_new_report_or_not                0x00007f84   Section        0  auto_report.o(i.start_new_report_or_not)
    start_new_report_or_not                  0x00007f85   Thumb Code    56  auto_report.o(i.start_new_report_or_not)
    i.start_report                           0x00008008   Section        0  auto_report.o(i.start_report)
    start_report                             0x00008009   Thumb Code   106  auto_report.o(i.start_report)
    i.state_machine                          0x00008084   Section        0  app_dev_ctrl.o(i.state_machine)
    state_machine                            0x00008085   Thumb Code    12  app_dev_ctrl.o(i.state_machine)
    i.stop_fixed_report_save                 0x00008090   Section        0  auto_report.o(i.stop_fixed_report_save)
    stop_fixed_report_save                   0x00008091   Thumb Code    16  auto_report.o(i.stop_fixed_report_save)
    i.stop_fixed_reporting                   0x000080a4   Section        0  auto_report.o(i.stop_fixed_reporting)
    i.stop_report                            0x000080d0   Section        0  auto_report.o(i.stop_report)
    stop_report                              0x000080d1   Thumb Code   134  auto_report.o(i.stop_report)
    i.stop_report_para                       0x0000815c   Section        0  auto_report.o(i.stop_report_para)
    i.sub_report_or_not                      0x00008178   Section        0  auto_report.o(i.sub_report_or_not)
    sub_report_or_not                        0x00008179   Thumb Code    46  auto_report.o(i.sub_report_or_not)
    i.sys_tick                               0x000081ac   Section        0  app_dev_ctrl.o(i.sys_tick)
    sys_tick                                 0x000081ad   Thumb Code   190  app_dev_ctrl.o(i.sys_tick)
    i.system_init                            0x00008280   Section        0  app_dev_ctrl.o(i.system_init)
    i.task_100ms                             0x000082b0   Section        0  app_dev_ctrl.o(i.task_100ms)
    task_100ms                               0x000082b1   Thumb Code    64  app_dev_ctrl.o(i.task_100ms)
    i.task_20ms                              0x000082fc   Section        0  app_dev_ctrl.o(i.task_20ms)
    task_20ms                                0x000082fd   Thumb Code    24  app_dev_ctrl.o(i.task_20ms)
    i.task_handle                            0x0000831c   Section        0  app_dev_ctrl.o(i.task_handle)
    i.task_key                               0x00008378   Section        0  app_dev_ctrl.o(i.task_key)
    task_key                                 0x00008379   Thumb Code     2  app_dev_ctrl.o(i.task_key)
    i.task_sec                               0x0000837c   Section        0  app_dev_ctrl.o(i.task_sec)
    task_sec                                 0x0000837d   Thumb Code    80  app_dev_ctrl.o(i.task_sec)
    i.temp_auto_ctrl                         0x000083dc   Section        0  app_dev_ctrl.o(i.temp_auto_ctrl)
    i.temp_ctrl_realy                        0x00008508   Section        0  app_dev_ctrl.o(i.temp_ctrl_realy)
    i.temp_display_flash                     0x0000880c   Section        0  app_lcd.o(i.temp_display_flash)
    i.temp_param_init                        0x000089a4   Section        0  app_dev_ctrl.o(i.temp_param_init)
    i.uart5_config                           0x00008a74   Section        0  smart_plc.o(i.uart5_config)
    i.uart_peek                              0x00008ae8   Section        0  smart_plc.o(i.uart_peek)
    i.uart_pop_tx                            0x00008b00   Section        0  smart_plc.o(i.uart_pop_tx)
    i.uart_push_rx                           0x00008b18   Section        0  smart_plc.o(i.uart_push_rx)
    i.uart_rx_hook                           0x00008b30   Section        0  smart_plc.o(i.uart_rx_hook)
    i.uart_tick_hook                         0x00008b60   Section        0  smart_plc.o(i.uart_tick_hook)
    i.uart_write                             0x00008ba8   Section        0  app_dev_ctrl.o(i.uart_write)
    i.uart_write_report                      0x00008c2c   Section        0  auto_report_app.o(i.uart_write_report)
    i.update_lcd_data                        0x00008c70   Section        0  app_lcd.o(i.update_lcd_data)
    i.wait_sec                               0x00008ea8   Section        0  smart_plc.o(i.wait_sec)
    wait_sec                                 0x00008ea9   Thumb Code    38  smart_plc.o(i.wait_sec)
    i.win_speed_ctrl_realy                   0x00008efc   Section        0  app_dev_ctrl.o(i.win_speed_ctrl_realy)
    i.win_speed_handle                       0x00008f4c   Section        0  app_dev_ctrl.o(i.win_speed_handle)
    i.wr_plc_aid                             0x00008fb8   Section        0  smart_plc.o(i.wr_plc_aid)
    wr_plc_aid                               0x00008fb9   Thumb Code    34  smart_plc.o(i.wr_plc_aid)
    i.wr_plc_panid                           0x00009000   Section        0  smart_plc.o(i.wr_plc_panid)
    wr_plc_panid                             0x00009001   Thumb Code    82  smart_plc.o(i.wr_plc_panid)
    i.write_to_flash                         0x000090a8   Section        0  app_dev_ctrl.o(i.write_to_flash)
    i.xbcd2hex                               0x000090d8   Section        0  utils.o(i.xbcd2hex)
    .constdata                               0x0000910c   Section       56  fsl_flexcomm.o(.constdata)
    s_flexcommBaseAddrs                      0x00009114   Data          32  fsl_flexcomm.o(.constdata)
    s_flexcommClocks                         0x00009134   Data          16  fsl_flexcomm.o(.constdata)
    .constdata                               0x00009144   Section       36  fsl_clock.o(.constdata)
    wdtFreqLookup                            0x00009148   Data          32  fsl_clock.o(.constdata)
    .constdata                               0x00009168   Section       40  fsl_spi.o(.constdata)
    s_spiBaseAddrs                           0x00009168   Data          32  fsl_spi.o(.constdata)
    s_spiIRQ                                 0x00009188   Data           8  fsl_spi.o(.constdata)
    .constdata                               0x00009190   Section        8  fsl_pint.o(.constdata)
    s_pintIRQ                                0x00009190   Data           8  fsl_pint.o(.constdata)
    .constdata                               0x00009198   Section       57  fsl_ctimer.o(.constdata)
    s_ctimerBases                            0x00009198   Data          20  fsl_ctimer.o(.constdata)
    s_ctimerClocks                           0x000091ac   Data          10  fsl_ctimer.o(.constdata)
    s_ctimerResets                           0x000091b8   Data          20  fsl_ctimer.o(.constdata)
    s_ctimerIRQ                              0x000091cc   Data           5  fsl_ctimer.o(.constdata)
    .constdata                               0x000091d4   Section       12  fsl_sctimer.o(.constdata)
    s_sctBases                               0x000091d4   Data           4  fsl_sctimer.o(.constdata)
    s_sctClocks                              0x000091d8   Data           2  fsl_sctimer.o(.constdata)
    s_sctResets                              0x000091dc   Data           4  fsl_sctimer.o(.constdata)
    .constdata                               0x000091e0   Section      112  mcmgr_internal_core_api_lpc54114.o(.constdata)
    s_mcmgrMemRegs                           0x000091e0   Data          16  mcmgr_internal_core_api_lpc54114.o(.constdata)
    s_mcmgrCores                             0x000091f0   Data          80  mcmgr_internal_core_api_lpc54114.o(.constdata)
    .constdata                               0x00009250   Section       34  app_dev_ctrl.o(.constdata)
    dev_type                                 0x00009250   Data           8  app_dev_ctrl.o(.constdata)
    sn                                       0x00009258   Data          12  app_dev_ctrl.o(.constdata)
    dkey                                     0x00009264   Data           8  app_dev_ctrl.o(.constdata)
    aid                                      0x0000926c   Data           4  app_dev_ctrl.o(.constdata)
    pwd                                      0x00009270   Data           2  app_dev_ctrl.o(.constdata)
    .constdata                               0x00009274   Section      193  app_lcd.o(.constdata)
    .constdata                               0x00009335   Section        8  app_key.o(.constdata)
    .constdata                               0x0000933d   Section       16  app_realy.o(.constdata)
    .conststring                             0x00009350   Section       90  fsl_spi.o(.conststring)
    .conststring                             0x000093ac   Section       18  mcmgr_internal_core_api_lpc54114.o(.conststring)
    .conststring                             0x000093c0   Section       29  app_dev_ctrl.o(.conststring)
    .conststring                             0x000093e0   Section       32  protocol_smart.o(.conststring)
    M0CODE                                   0x00030000   Section     7592  incbin.o(M0CODE)
    .data                                    0x20000000   Section       13  hello_world_core0.o(.data)
    .data                                    0x20000010   Section        4  system_lpc54114_cm4.o(.data)
    .data                                    0x20000014   Section        8  fsl_clock.o(.data)
    s_Pll_Freq                               0x20000014   Data           4  fsl_clock.o(.data)
    .data                                    0x2000001c   Section        5  fsl_ctimer.o(.data)
    ctimerCallbackType                       0x2000001c   Data           5  fsl_ctimer.o(.data)
    .data                                    0x20000024   Section       16  fsl_sctimer.o(.data)
    s_currentEvent                           0x20000024   Data           4  fsl_sctimer.o(.data)
    s_currentState                           0x20000028   Data           4  fsl_sctimer.o(.data)
    s_currentMatch                           0x2000002c   Data           4  fsl_sctimer.o(.data)
    s_sctimerIsr                             0x20000030   Data           4  fsl_sctimer.o(.data)
    .data                                    0x20000034   Section        7  app_si70xx.o(.data)
    .data                                    0x2000003c   Section       12  app_interrupt.o(.data)
    .data                                    0x20000048   Section      116  app_dev_ctrl.o(.data)
    temp_ctrl_flag_cool                      0x20000053   Data           1  app_dev_ctrl.o(.data)
    temp_ctrl_flag_heat                      0x20000054   Data           1  app_dev_ctrl.o(.data)
    softver                                  0x2000005c   Data           4  app_dev_ctrl.o(.data)
    _msec                                    0x200000b4   Data           1  app_dev_ctrl.o(.data)
    _sec                                     0x200000b5   Data           1  app_dev_ctrl.o(.data)
    tick_cnt                                 0x200000b6   Data           1  app_dev_ctrl.o(.data)
    counter                                  0x200000b8   Data           4  app_dev_ctrl.o(.data)
    .data                                    0x200000bc   Section       30  app_lcd.o(.data)
    counter                                  0x200000d9   Data           1  app_lcd.o(.data)
    .data                                    0x200000da   Section       27  app_key.o(.data)
    key_value_table                          0x200000db   Data          21  app_key.o(.data)
    .data                                    0x200000f8   Section       20  app_beep.o(.data)
    .data                                    0x2000010c   Section      238  smart_plc.o(.data)
    last_state                               0x200001f9   Data           1  smart_plc.o(.data)
    .data                                    0x200001fc   Section      281  protocol_smart.o(.data)
    _seq                                     0x20000314   Data           1  protocol_smart.o(.data)
    .data                                    0x20000318   Section       35  auto_report.o(.data)
    flags                                    0x20000318   Data           8  auto_report.o(.data)
    sub_pos                                  0x20000320   Data           4  auto_report.o(.data)
    array                                    0x20000339   Data           2  auto_report.o(.data)
    .bss                                     0x20000340   Section       32  hello_world_core0.o(.bss)
    .bss                                     0x20000360   Section       64  fsl_flexcomm.o(.bss)
    s_flexcommIrqHandler                     0x20000360   Data          32  fsl_flexcomm.o(.bss)
    s_flexcommHandle                         0x20000380   Data          32  fsl_flexcomm.o(.bss)
    .bss                                     0x200003a0   Section       16  fsl_spi.o(.bss)
    g_configs                                0x200003a0   Data          16  fsl_spi.o(.bss)
    .bss                                     0x200003b0   Section       32  fsl_pint.o(.bss)
    s_pintCallback                           0x200003b0   Data          32  fsl_pint.o(.bss)
    .bss                                     0x200003d0   Section       20  fsl_ctimer.o(.bss)
    s_ctimerCallback                         0x200003d0   Data          20  fsl_ctimer.o(.bss)
    .bss                                     0x200003e4   Section       40  fsl_sctimer.o(.bss)
    s_eventCallback                          0x200003e4   Data          40  fsl_sctimer.o(.bss)
    .bss                                     0x20000600   Section      832  fsl_dma.o(.bss)
    s_DMAHandle                              0x20000600   Data          80  fsl_dma.o(.bss)
    .bss                                     0x20000940   Section       16  fsl_debug_console.o(.bss)
    s_debugConsole                           0x20000940   Data          16  fsl_debug_console.o(.bss)
    .bss                                     0x20000950   Section       16  app_si70xx.o(.bss)
    .bss                                     0x20000960   Section     1024  app_dev_ctrl.o(.bss)
    .bss                                     0x20000d60   Section       16  app_spiflash.o(.bss)
    .bss                                     0x20000d70   Section      160  app_key.o(.bss)
    .bss                                     0x20000e10   Section       88  smart_plc.o(.bss)
    .bss                                     0x20000e68   Section      288  auto_report.o(.bss)
    subs_data                                0x20000e68   Data          36  auto_report.o(.bss)
    delay_data                               0x20000e8c   Data          24  auto_report.o(.bss)
    .bss                                     0x20000f88   Section     1028  alloter.o(.bss)

    Global Symbols

    Symbol Name                              Value     Ov Type        Size  Object(Section)

    BuildAttributes$$THM_ISAv4$E$P$D$K$B$S$7EM$VFPi3$EXTD16$VFPS$VFMA$PE$A:L22UL41UL21$X:L11$S22US41US21$IEEE1$IW$USESV6$~STKCKD$USESV7$~SHL$OSPACE$ROPI$EBA8$MICROLIB$REQ8$PRES8$EABIv2 0x00000000   Number         0  anon$$obj.o ABSOLUTE
    Image$$VECTOR_RAM$$Base                  0x00000000   Number         0  anon$$obj.o ABSOLUTE
    Image$$VECTOR_ROM$$Base                  0x00000000   Number         0  anon$$obj.o ABSOLUTE
    __ARM_use_no_argv                        0x00000000   Number         0  hello_world_core0.o ABSOLUTE
    __Vectors                                0x00000000   Data           4  startup_lpc54114_cm4.o(RESET)
    __cpp_initialize__aeabi_                  - Undefined Weak Reference
    __cxa_finalize                            - Undefined Weak Reference
    _clock_init                               - Undefined Weak Reference
    _microlib_exit                            - Undefined Weak Reference
    __main                                   0x000000e1   Thumb Code     0  entry.o(.ARM.Collect$$$$00000000)
    _main_stk                                0x000000e1   Thumb Code     0  entry4.o(.ARM.Collect$$$$00000003)
    _main_scatterload                        0x000000e5   Thumb Code     0  entry5.o(.ARM.Collect$$$$00000004)
    __main_after_scatterload                 0x000000e9   Thumb Code     0  entry5.o(.ARM.Collect$$$$00000004)
    _main_clock                              0x000000e9   Thumb Code     0  entry7b.o(.ARM.Collect$$$$00000008)
    _main_cpp_init                           0x000000e9   Thumb Code     0  entry8b.o(.ARM.Collect$$$$0000000A)
    _main_init                               0x000000e9   Thumb Code     0  entry9a.o(.ARM.Collect$$$$0000000B)
    __rt_final_cpp                           0x000000f1   Thumb Code     0  entry10a.o(.ARM.Collect$$$$0000000D)
    __rt_final_exit                          0x000000f1   Thumb Code     0  entry11a.o(.ARM.Collect$$$$0000000F)
    Reset_Handler                            0x00000109   Thumb Code    66  startup_lpc54114_cm4.o(.text)
    NMI_Handler                              0x0000014b   Thumb Code     2  startup_lpc54114_cm4.o(.text)
    HardFault_Handler                        0x0000014d   Thumb Code     2  startup_lpc54114_cm4.o(.text)
    MemManage_Handler                        0x0000014f   Thumb Code     2  startup_lpc54114_cm4.o(.text)
    BusFault_Handler                         0x00000151   Thumb Code     2  startup_lpc54114_cm4.o(.text)
    UsageFault_Handler                       0x00000153   Thumb Code     2  startup_lpc54114_cm4.o(.text)
    SVC_Handler                              0x00000155   Thumb Code     2  startup_lpc54114_cm4.o(.text)
    DebugMon_Handler                         0x00000157   Thumb Code     2  startup_lpc54114_cm4.o(.text)
    PendSV_Handler                           0x00000159   Thumb Code     2  startup_lpc54114_cm4.o(.text)
    WDT_BOD_IRQHandler                       0x0000015d   Thumb Code     4  startup_lpc54114_cm4.o(.text)
    DMA0_IRQHandler                          0x00000161   Thumb Code     4  startup_lpc54114_cm4.o(.text)
    GINT0_IRQHandler                         0x00000165   Thumb Code     4  startup_lpc54114_cm4.o(.text)
    GINT1_IRQHandler                         0x00000169   Thumb Code     4  startup_lpc54114_cm4.o(.text)
    PIN_INT0_IRQHandler                      0x0000016d   Thumb Code     4  startup_lpc54114_cm4.o(.text)
    PIN_INT1_IRQHandler                      0x00000171   Thumb Code     4  startup_lpc54114_cm4.o(.text)
    PIN_INT2_IRQHandler                      0x00000175   Thumb Code     4  startup_lpc54114_cm4.o(.text)
    PIN_INT3_IRQHandler                      0x00000179   Thumb Code     4  startup_lpc54114_cm4.o(.text)
    UTICK0_IRQHandler                        0x0000017d   Thumb Code     4  startup_lpc54114_cm4.o(.text)
    MRT0_IRQHandler                          0x00000181   Thumb Code     4  startup_lpc54114_cm4.o(.text)
    CTIMER0_IRQHandler                       0x00000185   Thumb Code     4  startup_lpc54114_cm4.o(.text)
    CTIMER1_IRQHandler                       0x00000189   Thumb Code     4  startup_lpc54114_cm4.o(.text)
    CTIMER3_IRQHandler                       0x00000191   Thumb Code     4  startup_lpc54114_cm4.o(.text)
    FLEXCOMM0_IRQHandler                     0x00000195   Thumb Code     4  startup_lpc54114_cm4.o(.text)
    FLEXCOMM1_IRQHandler                     0x00000199   Thumb Code     4  startup_lpc54114_cm4.o(.text)
    FLEXCOMM2_IRQHandler                     0x0000019d   Thumb Code     4  startup_lpc54114_cm4.o(.text)
    FLEXCOMM3_IRQHandler                     0x000001a1   Thumb Code     4  startup_lpc54114_cm4.o(.text)
    FLEXCOMM4_IRQHandler                     0x000001a5   Thumb Code     4  startup_lpc54114_cm4.o(.text)
    FLEXCOMM6_IRQHandler                     0x000001ad   Thumb Code     4  startup_lpc54114_cm4.o(.text)
    FLEXCOMM7_IRQHandler                     0x000001b1   Thumb Code     4  startup_lpc54114_cm4.o(.text)
    ADC0_SEQA_IRQHandler                     0x000001b5   Thumb Code     4  startup_lpc54114_cm4.o(.text)
    ADC0_SEQB_IRQHandler                     0x000001b9   Thumb Code     4  startup_lpc54114_cm4.o(.text)
    ADC0_THCMP_IRQHandler                    0x000001bd   Thumb Code     4  startup_lpc54114_cm4.o(.text)
    DMIC0_IRQHandler                         0x000001c1   Thumb Code     4  startup_lpc54114_cm4.o(.text)
    HWVAD0_IRQHandler                        0x000001c5   Thumb Code     4  startup_lpc54114_cm4.o(.text)
    USB0_NEEDCLK_IRQHandler                  0x000001c9   Thumb Code     4  startup_lpc54114_cm4.o(.text)
    USB0_IRQHandler                          0x000001cd   Thumb Code     4  startup_lpc54114_cm4.o(.text)
    RTC_IRQHandler                           0x000001d1   Thumb Code     4  startup_lpc54114_cm4.o(.text)
    IOH_IRQHandler                           0x000001d5   Thumb Code     4  startup_lpc54114_cm4.o(.text)
    PIN_INT4_IRQHandler                      0x000001dd   Thumb Code     4  startup_lpc54114_cm4.o(.text)
    PIN_INT5_IRQHandler                      0x000001e1   Thumb Code     4  startup_lpc54114_cm4.o(.text)
    PIN_INT6_IRQHandler                      0x000001e5   Thumb Code     4  startup_lpc54114_cm4.o(.text)
    PIN_INT7_IRQHandler                      0x000001e9   Thumb Code     4  startup_lpc54114_cm4.o(.text)
    CTIMER2_IRQHandler                       0x000001ed   Thumb Code     4  startup_lpc54114_cm4.o(.text)
    CTIMER4_IRQHandler                       0x000001f1   Thumb Code     4  startup_lpc54114_cm4.o(.text)
    Reserved54_IRQHandler                    0x000001f5   Thumb Code     4  startup_lpc54114_cm4.o(.text)
    SPIFI0_IRQHandler                        0x000001f9   Thumb Code     4  startup_lpc54114_cm4.o(.text)
    ADC0_SEQA_DriverIRQHandler               0x000001fd   Thumb Code     0  startup_lpc54114_cm4.o(.text)
    ADC0_SEQB_DriverIRQHandler               0x000001fd   Thumb Code     0  startup_lpc54114_cm4.o(.text)
    ADC0_THCMP_DriverIRQHandler              0x000001fd   Thumb Code     0  startup_lpc54114_cm4.o(.text)
    DMIC0_DriverIRQHandler                   0x000001fd   Thumb Code     0  startup_lpc54114_cm4.o(.text)
    GINT0_DriverIRQHandler                   0x000001fd   Thumb Code     0  startup_lpc54114_cm4.o(.text)
    GINT1_DriverIRQHandler                   0x000001fd   Thumb Code     0  startup_lpc54114_cm4.o(.text)
    HWVAD0_DriverIRQHandler                  0x000001fd   Thumb Code     0  startup_lpc54114_cm4.o(.text)
    IOH_DriverIRQHandler                     0x000001fd   Thumb Code     0  startup_lpc54114_cm4.o(.text)
    MAILBOX_DriverIRQHandler                 0x000001fd   Thumb Code     0  startup_lpc54114_cm4.o(.text)
    MRT0_DriverIRQHandler                    0x000001fd   Thumb Code     0  startup_lpc54114_cm4.o(.text)
    RTC_DriverIRQHandler                     0x000001fd   Thumb Code     0  startup_lpc54114_cm4.o(.text)
    Reserved54_DriverIRQHandler              0x000001fd   Thumb Code     0  startup_lpc54114_cm4.o(.text)
    SCT0_DriverIRQHandler                    0x000001fd   Thumb Code     0  startup_lpc54114_cm4.o(.text)
    SPIFI0_DriverIRQHandler                  0x000001fd   Thumb Code     0  startup_lpc54114_cm4.o(.text)
    USB0_DriverIRQHandler                    0x000001fd   Thumb Code     0  startup_lpc54114_cm4.o(.text)
    USB0_NEEDCLK_DriverIRQHandler            0x000001fd   Thumb Code     0  startup_lpc54114_cm4.o(.text)
    UTICK0_DriverIRQHandler                  0x000001fd   Thumb Code     0  startup_lpc54114_cm4.o(.text)
    WDT_BOD_DriverIRQHandler                 0x000001fd   Thumb Code     0  startup_lpc54114_cm4.o(.text)
    ___aeabi_memcpy8$move                    0x000002ad   Thumb Code     0  memmovea.o(.text)
    __aeabi_memcpy                           0x000002ad   Thumb Code    64  memmovea.o(.text)
    __aeabi_memcpy4                          0x000002ad   Thumb Code     0  memmovea.o(.text)
    __aeabi_memmove                          0x000002ad   Thumb Code     0  memmovea.o(.text)
    __aeabi_memmove4                         0x000002ad   Thumb Code     0  memmovea.o(.text)
    __aeabi_memmove8                         0x000002ad   Thumb Code     0  memmovea.o(.text)
    strlen                                   0x000002ed   Thumb Code    14  strlen.o(.text)
    __I$use$fp                               0x000002fb   Thumb Code     0  iusefp.o(.text)
    __scatterload_null                       0x000002fb   Thumb Code     2  handlers.o(i.__scatterload_null)
    __aeabi_uldivmod                         0x00000301   Thumb Code    98  uldiv.o(.text)
    __aeabi_memset                           0x00000363   Thumb Code    14  memseta.o(.text)
    __aeabi_memset4                          0x00000363   Thumb Code     0  memseta.o(.text)
    __aeabi_memset8                          0x00000363   Thumb Code     0  memseta.o(.text)
    __aeabi_memclr                           0x00000371   Thumb Code     4  memseta.o(.text)
    __aeabi_memclr4                          0x00000371   Thumb Code     0  memseta.o(.text)
    __aeabi_memclr8                          0x00000371   Thumb Code     0  memseta.o(.text)
    _memset$wrapper                          0x00000375   Thumb Code    18  memseta.o(.text)
    memcmp                                   0x00000387   Thumb Code    26  memcmp.o(.text)
    __aeabi_d2iz                             0x000003a1   Thumb Code    62  dfixi.o(.text)
    __aeabi_d2uiz                            0x000003df   Thumb Code    50  dfixui.o(.text)
    __aeabi_cdrcmple                         0x00000411   Thumb Code    48  cdrcmple.o(.text)
    __aeabi_llsl                             0x00000441   Thumb Code    30  llshl.o(.text)
    _ll_shift_l                              0x00000441   Thumb Code     0  llshl.o(.text)
    __aeabi_llsr                             0x0000045f   Thumb Code    32  llushr.o(.text)
    _ll_ushift_r                             0x0000045f   Thumb Code     0  llushr.o(.text)
    __scatterload                            0x00000481   Thumb Code    28  init.o(.text)
    __scatterload_rt2                        0x00000481   Thumb Code     0  init.o(.text)
    __decompress                             0x000004a5   Thumb Code     0  __dczerorl2.o(.text)
    __decompress1                            0x000004a5   Thumb Code    86  __dczerorl2.o(.text)
    BOARD_BootClockFROHF48M                  0x000004fd   Thumb Code    56  clock_config.o(i.BOARD_BootClockFROHF48M)
    BOARD_InitDebugConsole                   0x00000545   Thumb Code    50  board.o(i.BOARD_InitDebugConsole)
    BOARD_InitPins_Core0                     0x000005a9   Thumb Code    40  pin_mux.o(i.BOARD_InitPins_Core0)
    CLOCK_AttachClk                          0x000005d5   Thumb Code    60  fsl_clock.o(i.CLOCK_AttachClk)
    CLOCK_GetAsyncApbClkFreq                 0x00000661   Thumb Code    40  fsl_clock.o(i.CLOCK_GetAsyncApbClkFreq)
    CLOCK_GetCoreSysClkFreq                  0x00000691   Thumb Code   120  fsl_clock.o(i.CLOCK_GetCoreSysClkFreq)
    CLOCK_GetExtClkFreq                      0x0000070d   Thumb Code     4  fsl_clock.o(i.CLOCK_GetExtClkFreq)
    CLOCK_GetFRGInputClock                   0x00000711   Thumb Code    60  fsl_clock.o(i.CLOCK_GetFRGInputClock)
    CLOCK_GetFlexCommClkFreq                 0x00000751   Thumb Code    88  fsl_clock.o(i.CLOCK_GetFlexCommClkFreq)
    CLOCK_GetFreq                            0x000007ad   Thumb Code   424  fsl_clock.o(i.CLOCK_GetFreq)
    CLOCK_GetFro12MFreq                      0x00000959   Thumb Code    18  fsl_clock.o(i.CLOCK_GetFro12MFreq)
    CLOCK_GetFroHfFreq                       0x00000975   Thumb Code    46  fsl_clock.o(i.CLOCK_GetFroHfFreq)
    CLOCK_GetI2SMClkFreq                     0x000009b5   Thumb Code     6  fsl_clock.o(i.CLOCK_GetI2SMClkFreq)
    CLOCK_GetOsc32KFreq                      0x000009c1   Thumb Code     6  fsl_clock.o(i.CLOCK_GetOsc32KFreq)
    CLOCK_GetPllOutFreq                      0x000009c9   Thumb Code     6  fsl_clock.o(i.CLOCK_GetPllOutFreq)
    CLOCK_GetWdtOscFreq                      0x000009d5   Thumb Code    50  fsl_clock.o(i.CLOCK_GetWdtOscFreq)
    CLOCK_SetClkDiv                          0x00000a15   Thumb Code    36  fsl_clock.o(i.CLOCK_SetClkDiv)
    CLOCK_SetFLASHAccessCyclesForFreq        0x00000a55   Thumb Code    68  fsl_clock.o(i.CLOCK_SetFLASHAccessCyclesForFreq)
    CLOCK_SetupFROClocking                   0x00000aa9   Thumb Code   138  fsl_clock.o(i.CLOCK_SetupFROClocking)
    CTIMER0_DriverIRQHandler                 0x00000b45   Thumb Code    10  fsl_ctimer.o(i.CTIMER0_DriverIRQHandler)
    CTIMER1_DriverIRQHandler                 0x00000b4f   Thumb Code    10  fsl_ctimer.o(i.CTIMER1_DriverIRQHandler)
    CTIMER2_DriverIRQHandler                 0x00000b59   Thumb Code    10  fsl_ctimer.o(i.CTIMER2_DriverIRQHandler)
    CTIMER3_DriverIRQHandler                 0x00000b63   Thumb Code    10  fsl_ctimer.o(i.CTIMER3_DriverIRQHandler)
    CTIMER4_DriverIRQHandler                 0x00000b6d   Thumb Code    10  fsl_ctimer.o(i.CTIMER4_DriverIRQHandler)
    CTIMER_GenericIRQHandler                 0x00000b7d   Thumb Code   110  fsl_ctimer.o(i.CTIMER_GenericIRQHandler)
    DMA0_DriverIRQHandler                    0x00000bf9   Thumb Code   168  fsl_dma.o(i.DMA0_DriverIRQHandler)
    DbgConsole_Init                          0x00000d4d   Thumb Code    74  fsl_debug_console.o(i.DbgConsole_Init)
    DbgConsole_Printf                        0x00000da5   Thumb Code    44  fsl_debug_console.o(i.DbgConsole_Printf)
    DbgConsole_Putchar                       0x0000103d   Thumb Code    30  fsl_debug_console.o(i.DbgConsole_Putchar)
    FLEXCOMM0_DriverIRQHandler               0x00001061   Thumb Code    36  fsl_flexcomm.o(i.FLEXCOMM0_DriverIRQHandler)
    FLEXCOMM1_DriverIRQHandler               0x000010e5   Thumb Code    36  fsl_flexcomm.o(i.FLEXCOMM1_DriverIRQHandler)
    FLEXCOMM2_DriverIRQHandler               0x00001169   Thumb Code    36  fsl_flexcomm.o(i.FLEXCOMM2_DriverIRQHandler)
    FLEXCOMM3_DriverIRQHandler               0x000011ed   Thumb Code    36  fsl_flexcomm.o(i.FLEXCOMM3_DriverIRQHandler)
    FLEXCOMM4_DriverIRQHandler               0x00001271   Thumb Code    36  fsl_flexcomm.o(i.FLEXCOMM4_DriverIRQHandler)
    FLEXCOMM5_DriverIRQHandler               0x000012f5   Thumb Code    36  fsl_flexcomm.o(i.FLEXCOMM5_DriverIRQHandler)
    FLEXCOMM5_IRQHandler                     0x00001379   Thumb Code    46  smart_plc.o(i.FLEXCOMM5_IRQHandler)
    FLEXCOMM6_DriverIRQHandler               0x000013ad   Thumb Code    36  fsl_flexcomm.o(i.FLEXCOMM6_DriverIRQHandler)
    FLEXCOMM7_DriverIRQHandler               0x00001431   Thumb Code    36  fsl_flexcomm.o(i.FLEXCOMM7_DriverIRQHandler)
    FLEXCOMM_GetInstance                     0x000014b5   Thumb Code    38  fsl_flexcomm.o(i.FLEXCOMM_GetInstance)
    FLEXCOMM_Init                            0x00001525   Thumb Code    68  fsl_flexcomm.o(i.FLEXCOMM_Init)
    FLEXCOMM_SetPeriph                       0x000015af   Thumb Code    68  fsl_flexcomm.o(i.FLEXCOMM_SetPeriph)
    I2C_MasterGetDefaultConfig               0x00001629   Thumb Code    14  fsl_i2c.o(i.I2C_MasterGetDefaultConfig)
    I2C_MasterInit                           0x0000163d   Thumb Code    36  fsl_i2c.o(i.I2C_MasterInit)
    I2C_MasterSetBaudRate                    0x00001661   Thumb Code   136  fsl_i2c.o(i.I2C_MasterSetBaudRate)
    I2C_MasterStart                          0x000016e9   Thumb Code    34  fsl_i2c.o(i.I2C_MasterStart)
    I2C_MasterWriteBlocking                  0x0000170d   Thumb Code   202  fsl_i2c.o(i.I2C_MasterWriteBlocking)
    INPUTMUX_AttachSignal                    0x0000183b   Thumb Code    14  fsl_inputmux.o(i.INPUTMUX_AttachSignal)
    INPUTMUX_Deinit                          0x00001849   Thumb Code    36  fsl_inputmux.o(i.INPUTMUX_Deinit)
    INPUTMUX_Init                            0x00001875   Thumb Code    36  fsl_inputmux.o(i.INPUTMUX_Init)
    MAILBOX_IRQHandler                       0x000018c5   Thumb Code   174  hello_world_core0.o(i.MAILBOX_IRQHandler)
    MCMGR_GetCurrentCore                     0x000019bd   Thumb Code    10  mcmgr.o(i.MCMGR_GetCurrentCore)
    MCMGR_Init                               0x000019cd   Thumb Code    40  mcmgr.o(i.MCMGR_Init)
    MCMGR_StartCore                          0x000019f9   Thumb Code    54  mcmgr.o(i.MCMGR_StartCore)
    PINT_EnableCallback                      0x00001a4d   Thumb Code    92  fsl_pint.o(i.PINT_EnableCallback)
    PINT_Init                                0x00001aed   Thumb Code   102  fsl_pint.o(i.PINT_Init)
    PINT_PatternMatchResetDetectLogic        0x00001ba1   Thumb Code    20  fsl_pint.o(i.PINT_PatternMatchResetDetectLogic)
    PINT_PinInterruptConfig                  0x00001bbd   Thumb Code   122  fsl_pint.o(i.PINT_PinInterruptConfig)
    PIN_INT0_DriverIRQHandler                0x00001c7d   Thumb Code    40  fsl_pint.o(i.PIN_INT0_DriverIRQHandler)
    PIN_INT1_DriverIRQHandler                0x00001ca9   Thumb Code    40  fsl_pint.o(i.PIN_INT1_DriverIRQHandler)
    PIN_INT2_DriverIRQHandler                0x00001cd5   Thumb Code    40  fsl_pint.o(i.PIN_INT2_DriverIRQHandler)
    PIN_INT3_DriverIRQHandler                0x00001d01   Thumb Code    40  fsl_pint.o(i.PIN_INT3_DriverIRQHandler)
    PIN_INT4_DriverIRQHandler                0x00001d2d   Thumb Code    40  fsl_pint.o(i.PIN_INT4_DriverIRQHandler)
    PIN_INT5_DriverIRQHandler                0x00001d59   Thumb Code    40  fsl_pint.o(i.PIN_INT5_DriverIRQHandler)
    PIN_INT6_DriverIRQHandler                0x00001d85   Thumb Code    40  fsl_pint.o(i.PIN_INT6_DriverIRQHandler)
    Image$$CORE1_REGION$$Length              0x00001da8   Number         0  anon$$obj.o ABSOLUTE
    PIN_INT7_DriverIRQHandler                0x00001db1   Thumb Code    40  fsl_pint.o(i.PIN_INT7_DriverIRQHandler)
    POWER_SetVoltageForFreq                  0x00001e05   Thumb Code   260  fsl_power_lib.o(i.POWER_SetVoltageForFreq)
    RESET_ClearPeripheralReset               0x00001f45   Thumb Code    80  fsl_reset.o(i.RESET_ClearPeripheralReset)
    RESET_PeripheralReset                    0x00001fe5   Thumb Code    18  fsl_reset.o(i.RESET_PeripheralReset)
    RESET_SetPeripheralReset                 0x00001ff9   Thumb Code    80  fsl_reset.o(i.RESET_SetPeripheralReset)
    SCT0_IRQHandler                          0x00002099   Thumb Code    12  fsl_sctimer.o(i.SCT0_IRQHandler)
    SCTIMER_CreateAndScheduleEvent           0x000020ad   Thumb Code   456  fsl_sctimer.o(i.SCTIMER_CreateAndScheduleEvent)
    SCTIMER_EventHandleIRQ                   0x00002285   Thumb Code    72  fsl_sctimer.o(i.SCTIMER_EventHandleIRQ)
    SCTIMER_GetDefaultConfig                 0x000022d5   Thumb Code    40  fsl_sctimer.o(i.SCTIMER_GetDefaultConfig)
    SCTIMER_Init                             0x000023d1   Thumb Code   218  fsl_sctimer.o(i.SCTIMER_Init)
    SCTIMER_SetupPwm                         0x00002551   Thumb Code   426  fsl_sctimer.o(i.SCTIMER_SetupPwm)
    SPI_GetInstance                          0x000027a1   Thumb Code    38  fsl_spi.o(i.SPI_GetInstance)
    SPI_MasterGetDefaultConfig               0x0000280d   Thumb Code    52  fsl_spi.o(i.SPI_MasterGetDefaultConfig)
    SPI_MasterInit                           0x0000288d   Thumb Code   276  fsl_spi.o(i.SPI_MasterInit)
    SPI_MasterSetBaud                        0x00002a49   Thumb Code    88  fsl_spi.o(i.SPI_MasterSetBaud)
    SPI_MasterTransferBlocking               0x00002b19   Thumb Code   510  fsl_spi.o(i.SPI_MasterTransferBlocking)
    SysTick_Handler                          0x00002da5   Thumb Code    56  app_interrupt.o(i.SysTick_Handler)
    SystemInit                               0x00002ded   Thumb Code    28  system_lpc54114_cm4.o(i.SystemInit)
    USART5_InitPins                          0x00002e15   Thumb Code    38  pin_mux.o(i.USART5_InitPins)
    USART_GetDefaultConfig                   0x00002e41   Thumb Code    48  fsl_usart.o(i.USART_GetDefaultConfig)
    USART_Init                               0x00002eb9   Thumb Code   226  fsl_usart.o(i.USART_Init)
    USART_ReadBlocking                       0x00003011   Thumb Code   188  fsl_usart.o(i.USART_ReadBlocking)
    USART_SetBaudRate                        0x00003129   Thumb Code   152  fsl_usart.o(i.USART_SetBaudRate)
    USART_WriteBlocking                      0x00003239   Thumb Code    90  fsl_usart.o(i.USART_WriteBlocking)
    __aeabi_assert                           0x000032f1   Thumb Code    24  fsl_common.o(i.__aeabi_assert)
    __scatterload_copy                       0x00003335   Thumb Code    14  handlers.o(i.__scatterload_copy)
    __scatterload_zeroinit                   0x00003343   Thumb Code    14  handlers.o(i.__scatterload_zeroinit)
    add_temp_handle                          0x0000335d   Thumb Code   106  app_dev_ctrl.o(i.add_temp_handle)
    app_init                                 0x00003409   Thumb Code    10  app_dev_ctrl.o(i.app_init)
    auto_report_init                         0x00003419   Thumb Code   102  auto_report.o(i.auto_report_init)
    auto_report_sec_task                     0x00003491   Thumb Code    36  auto_report.o(i.auto_report_sec_task)
    auto_speed_display                       0x000034b5   Thumb Code    88  app_dev_ctrl.o(i.auto_speed_display)
    backlight_ctrl                           0x00003511   Thumb Code    36  app_dev_ctrl.o(i.backlight_ctrl)
    backlight_init                           0x00003539   Thumb Code    36  app_lcd.o(i.backlight_init)
    backlight_off                            0x00003569   Thumb Code     8  app_lcd.o(i.backlight_off)
    backligt_on                              0x00003575   Thumb Code     8  app_lcd.o(i.backligt_on)
    bcd2hex                                  0x00003581   Thumb Code    50  utils.o(i.bcd2hex)
    beep_ctrl                                0x000035b5   Thumb Code    32  app_dev_ctrl.o(i.beep_ctrl)
    beep_init                                0x000035d9   Thumb Code   124  app_beep.o(i.beep_init)
    beep_off                                 0x00003675   Thumb Code    62  app_beep.o(i.beep_off)
    beep_on                                  0x000036c9   Thumb Code    64  app_beep.o(i.beep_on)
    bu9796Init                               0x0000371d   Thumb Code    72  app_lcd.o(i.bu9796Init)
    bu9796WriteByte                          0x00003779   Thumb Code    36  app_lcd.o(i.bu9796WriteByte)
    buffer2buff                              0x000037a1   Thumb Code    66  app_lcd.o(i.buffer2buff)
    check_alive                              0x000038cd   Thumb Code    70  app_dev_ctrl.o(i.check_alive)
    check_alive0                             0x0000393d   Thumb Code    62  app_dev_ctrl.o(i.check_alive0)
    check_fixed_fre_data                     0x00003985   Thumb Code    98  auto_report.o(i.check_fixed_fre_data)
    check_fixed_len_data                     0x00003a0d   Thumb Code   162  auto_report.o(i.check_fixed_len_data)
    checksum                                 0x00003af9   Thumb Code    24  utils.o(i.checksum)
    chg_state                                0x00003b11   Thumb Code    80  smart_plc.o(i.chg_state)
    clear_chn                                0x00003b9d   Thumb Code    22  auto_report.o(i.clear_chn)
    clear_equipment_gid_flag                 0x00003bbd   Thumb Code    10  auto_report.o(i.clear_equipment_gid_flag)
    clear_iss                                0x00003bcd   Thumb Code    12  app_key.o(i.clear_iss)
    clear_uart                               0x00003c11   Thumb Code    16  smart_plc.o(i.clear_uart)
    clr_display_group_sig                    0x00003c25   Thumb Code    84  app_lcd.o(i.clr_display_group_sig)
    clr_display_signal                       0x00003c85   Thumb Code    84  app_lcd.o(i.clr_display_signal)
    clr_num_display                          0x00003ce5   Thumb Code    84  app_lcd.o(i.clr_num_display)
    clr_position_num                         0x00003d3d   Thumb Code    26  app_lcd.o(i.clr_position_num)
    code_body                                0x00003d57   Thumb Code    60  protocol_smart.o(i.code_body)
    code_frame                               0x00003d95   Thumb Code   140  protocol_smart.o(i.code_frame)
    code_intype_body                         0x00003e35   Thumb Code    66  auto_report_app.o(i.code_intype_body)
    code_local_frame                         0x00003e77   Thumb Code    42  protocol_smart.o(i.code_local_frame)
    dec_temp_handle                          0x00003ea1   Thumb Code   106  app_dev_ctrl.o(i.dec_temp_handle)
    dev_init                                 0x00003f19   Thumb Code   154  app_dev_ctrl.o(i.dev_init)
    dev_type_get                             0x00003ffd   Thumb Code    26  app_dev_ctrl.o(i.dev_type_get)
    display_fix_signal                       0x0000401d   Thumb Code    76  app_lcd.o(i.display_fix_signal)
    display_group_sig                        0x00004075   Thumb Code   144  app_lcd.o(i.display_group_sig)
    display_signal                           0x00004111   Thumb Code    84  app_lcd.o(i.display_signal)
    do_cmd                                   0x00004171   Thumb Code   284  protocol_smart.o(i.do_cmd)
    flash_transfer_cb                        0x000043e5   Thumb Code    62  app_spiflash.o(i.flash_transfer_cb)
    get_1byte_bit1_number                    0x000044e9   Thumb Code    32  auto_report.o(i.get_1byte_bit1_number)
    get_chn                                  0x00004575   Thumb Code    24  auto_report.o(i.get_chn)
    get_chn_bytes                            0x00004591   Thumb Code   206  alloter.o(i.get_chn_bytes)
    get_core1_image_size                     0x00004665   Thumb Code     4  hello_world_core0.o(i.get_core1_image_size)
    get_dev_soft_ver                         0x00004741   Thumb Code    50  protocol_smart.o(i.get_dev_soft_ver)
    get_device_type                          0x00004779   Thumb Code    24  protocol_smart.o(i.get_device_type)
    get_id                                   0x000047cd   Thumb Code    18  smart_plc.o(i.get_id)
    get_last_bit_seqno                       0x000047df   Thumb Code    28  alloter.o(i.get_last_bit_seqno)
    get_le_val                               0x000047fb   Thumb Code    24  utils.o(i.get_le_val)
    get_min_freq                             0x00004839   Thumb Code    62  auto_report.o(i.get_min_freq)
    get_option                               0x000048a1   Thumb Code    52  protocol_smart.o(i.get_option)
    get_report_data_callback                 0x00004a09   Thumb Code   804  auto_report_app.o(i.get_report_data_callback)
    get_sensor_from_type                     0x00004e75   Thumb Code    38  auto_report.o(i.get_sensor_from_type)
    get_smart_frame                          0x00004f45   Thumb Code    96  protocol_smart.o(i.get_smart_frame)
    hex2bcd                                  0x00005115   Thumb Code    62  utils.o(i.hex2bcd)
    init_alarm_data                          0x00005155   Thumb Code    24  auto_report_app.o(i.init_alarm_data)
    init_chn_pool_mgr                        0x00005179   Thumb Code    16  alloter.o(i.init_chn_pool_mgr)
    init_relay_data                          0x0000518d   Thumb Code   164  auto_report_app.o(i.init_relay_data)
    init_sensor_data                         0x00005245   Thumb Code   152  auto_report_app.o(i.init_sensor_data)
    init_uart_infor                          0x000052e9   Thumb Code    38  smart_plc.o(i.init_uart_infor)
    is_all_bcd                               0x00005315   Thumb Code    40  utils.o(i.is_all_bcd)
    is_all_xx                                0x0000533d   Thumb Code    26  utils.o(i.is_all_xx)
    is_gid_equal                             0x00005359   Thumb Code   384  smart_plc.o(i.is_gid_equal)
    key_init                                 0x00005509   Thumb Code   110  app_key.o(i.key_init)
    key_scan                                 0x00005585   Thumb Code   418  app_key.o(i.key_scan)
    lcdReload                                0x0000573d   Thumb Code    44  app_lcd.o(i.lcdReload)
    local_ack_opt                            0x00005771   Thumb Code   114  smart_plc.o(i.local_ack_opt)
    local_frame_opt                          0x00005815   Thumb Code   104  smart_plc.o(i.local_frame_opt)
    main                                     0x00005885   Thumb Code   286  hello_world_core0.o(i.main)
    mode_handle                              0x00005c61   Thumb Code    50  app_dev_ctrl.o(i.mode_handle)
    mode_sig_display                         0x00005ca1   Thumb Code    82  app_lcd.o(i.mode_sig_display)
    mx25r_cmd_rdid                           0x00005cf3   Thumb Code    48  app_spiflash.o(i.mx25r_cmd_rdid)
    mx25r_cmd_rdsr                           0x00005d23   Thumb Code    48  app_spiflash.o(i.mx25r_cmd_rdsr)
    mx25r_cmd_read                           0x00005d53   Thumb Code    80  app_spiflash.o(i.mx25r_cmd_read)
    mx25r_cmd_sector_erase                   0x00005da3   Thumb Code    98  app_spiflash.o(i.mx25r_cmd_sector_erase)
    mx25r_cmd_wrdi                           0x00005e05   Thumb Code    30  app_spiflash.o(i.mx25r_cmd_wrdi)
    mx25r_cmd_wren                           0x00005e23   Thumb Code    30  app_spiflash.o(i.mx25r_cmd_wren)
    mx25r_cmd_write                          0x00005e41   Thumb Code   150  app_spiflash.o(i.mx25r_cmd_write)
    mx25r_init                               0x00005ed7   Thumb Code    10  app_spiflash.o(i.mx25r_init)
    num_display_ctrl                         0x00005ee1   Thumb Code   102  app_lcd.o(i.num_display_ctrl)
    on_off_handle                            0x00005f55   Thumb Code    90  app_dev_ctrl.o(i.on_off_handle)
    peek_chn                                 0x00006051   Thumb Code    24  auto_report.o(i.peek_chn)
    peek_chn_bytes                           0x0000606d   Thumb Code    84  alloter.o(i.peek_chn_bytes)
    pint_intr_callback                       0x000060c5   Thumb Code   106  app_key.o(i.pint_intr_callback)
    plc_init                                 0x000061c5   Thumb Code    16  smart_plc.o(i.plc_init)
    plc_machine_opt                          0x000061d5   Thumb Code    36  smart_plc.o(i.plc_machine_opt)
    plc_reset_init                           0x000061fd   Thumb Code    42  smart_plc.o(i.plc_reset_init)
    plc_reset_off                            0x00006235   Thumb Code     8  smart_plc.o(i.plc_reset_off)
    plc_reset_on                             0x00006241   Thumb Code     8  smart_plc.o(i.plc_reset_on)
    put_chn                                  0x00006291   Thumb Code    24  auto_report.o(i.put_chn)
    put_chn_bytes                            0x000062ad   Thumb Code   190  alloter.o(i.put_chn_bytes)
    put_le_val                               0x00006371   Thumb Code    20  utils.o(i.put_le_val)
    read_si7020_data                         0x00006645   Thumb Code   104  hello_world_core0.o(i.read_si7020_data)
    realy_init                               0x00006761   Thumb Code   104  app_realy.o(i.realy_init)
    realy_off                                0x000067e1   Thumb Code    22  app_realy.o(i.realy_off)
    realy_on                                 0x00006809   Thumb Code    22  app_realy.o(i.realy_on)
    realy_toggle                             0x00006831   Thumb Code    32  app_realy.o(i.realy_toggle)
    register_report                          0x0000685d   Thumb Code    50  auto_report.o(i.register_report)
    relay_ctrl                               0x000068dd   Thumb Code   208  app_realy.o(i.relay_ctrl)
    reload_freq_infor                        0x000069ad   Thumb Code    16  auto_report.o(i.reload_freq_infor)
    remote_frame_opt                         0x000069c1   Thumb Code   146  smart_plc.o(i.remote_frame_opt)
    report_finish_refresh_infor              0x00006a81   Thumb Code   172  auto_report_app.o(i.report_finish_refresh_infor)
    report_frame_ack                         0x00006b31   Thumb Code   112  auto_report.o(i.report_frame_ack)
    send_fixed_fre_count                     0x00006eb1   Thumb Code    52  auto_report.o(i.send_fixed_fre_count)
    send_fixed_len_count                     0x00006eed   Thumb Code    52  auto_report.o(i.send_fixed_len_count)
    send_local_frame                         0x00006f29   Thumb Code    68  smart_plc.o(i.send_local_frame)
    set_group_parameter                      0x000076a5   Thumb Code   150  smart_plc.o(i.set_group_parameter)
    set_ret_frame                            0x00007a95   Thumb Code    56  smart_plc.o(i.set_ret_frame)
    speed_realy_ctrl                         0x00007da9   Thumb Code   128  app_dev_ctrl.o(i.speed_realy_ctrl)
    speed_sig_display                        0x00007e29   Thumb Code   110  app_lcd.o(i.speed_sig_display)
    spiflash_init                            0x00007e99   Thumb Code   176  app_spiflash.o(i.spiflash_init)
    stop_fixed_reporting                     0x000080a5   Thumb Code    40  auto_report.o(i.stop_fixed_reporting)
    stop_report_para                         0x0000815d   Thumb Code    22  auto_report.o(i.stop_report_para)
    system_init                              0x00008281   Thumb Code    34  app_dev_ctrl.o(i.system_init)
    task_handle                              0x0000831d   Thumb Code    82  app_dev_ctrl.o(i.task_handle)
    temp_auto_ctrl                           0x000083dd   Thumb Code   286  app_dev_ctrl.o(i.temp_auto_ctrl)
    temp_ctrl_realy                          0x00008509   Thumb Code   748  app_dev_ctrl.o(i.temp_ctrl_realy)
    temp_display_flash                       0x0000880d   Thumb Code   396  app_lcd.o(i.temp_display_flash)
    temp_param_init                          0x000089a5   Thumb Code   184  app_dev_ctrl.o(i.temp_param_init)
    uart5_config                             0x00008a75   Thumb Code   102  smart_plc.o(i.uart5_config)
    uart_peek                                0x00008ae9   Thumb Code    20  smart_plc.o(i.uart_peek)
    uart_pop_tx                              0x00008b01   Thumb Code    20  smart_plc.o(i.uart_pop_tx)
    uart_push_rx                             0x00008b19   Thumb Code    20  smart_plc.o(i.uart_push_rx)
    uart_rx_hook                             0x00008b31   Thumb Code    38  smart_plc.o(i.uart_rx_hook)
    uart_tick_hook                           0x00008b61   Thumb Code    68  smart_plc.o(i.uart_tick_hook)
    uart_write                               0x00008ba9   Thumb Code    92  app_dev_ctrl.o(i.uart_write)
    uart_write_report                        0x00008c2d   Thumb Code    30  auto_report_app.o(i.uart_write_report)
    update_lcd_data                          0x00008c71   Thumb Code   534  app_lcd.o(i.update_lcd_data)
    win_speed_ctrl_realy                     0x00008efd   Thumb Code    80  app_dev_ctrl.o(i.win_speed_ctrl_realy)
    win_speed_handle                         0x00008f4d   Thumb Code    96  app_dev_ctrl.o(i.win_speed_handle)
    write_to_flash                           0x000090a9   Thumb Code    40  app_dev_ctrl.o(i.write_to_flash)
    xbcd2hex                                 0x000090d9   Thumb Code    50  utils.o(i.xbcd2hex)
    kFlexcommIrqs                            0x0000910c   Data           8  fsl_flexcomm.o(.constdata)
    g_Ext_Clk_Freq                           0x00009144   Data           4  fsl_clock.o(.constdata)
    g_mcmgrSystem                            0x00009240   Data          16  mcmgr_internal_core_api_lpc54114.o(.constdata)
    digit_table                              0x00009274   Data          18  app_lcd.o(.constdata)
    digit_table2                             0x00009286   Data          16  app_lcd.o(.constdata)
    sign_table                               0x00009296   Data         100  app_lcd.o(.constdata)
    KEY_GPIO_PORT                            0x00009335   Data           4  app_key.o(.constdata)
    KEY_GPIO_PIN                             0x00009339   Data           4  app_key.o(.constdata)
    REALY_GPIO_PORT                          0x0000933d   Data           4  app_realy.o(.constdata)
    REALY_GPIO_PIN                           0x00009341   Data           4  app_realy.o(.constdata)
    REALY_GPIO_ON                            0x00009345   Data           4  app_realy.o(.constdata)
    REALY_GPIO_OFF                           0x00009349   Data           4  app_realy.o(.constdata)
    Region$$Table$$Base                      0x00009400   Number         0  anon$$obj.o(Region$$Table)
    Region$$Table$$Limit                     0x00009420   Number         0  anon$$obj.o(Region$$Table)
    Image$$CORE1_REGION$$Base                0x00030000   Number         0  anon$$obj.o ABSOLUTE
    m0_image_start                           0x00030000   Data           0  incbin.o(M0CODE)
    m0_image_end                             0x00031da8   Data           0  incbin.o(M0CODE)
    Image$$ARM_LIB_STACK$$ZI$$Limit          0x04008000   Number         0  anon$$obj.o ABSOLUTE
    Image$$RW_m_data$$Base                   0x20000000   Number         0  anon$$obj.o ABSOLUTE
    p_message                                0x20000000   Data           4  hello_world_core0.o(.data)
    g_msg                                    0x20000004   Data           4  hello_world_core0.o(.data)
    message                                  0x20000008   Data           4  hello_world_core0.o(.data)
    sensor_error_flag                        0x2000000c   Data           1  hello_world_core0.o(.data)
    SystemCoreClock                          0x20000010   Data           4  system_lpc54114_cm4.o(.data)
    g_I2S_Mclk_Freq                          0x20000018   Data           4  fsl_clock.o(.data)
    sensor                                   0x20000034   Data           4  app_si70xx.o(.data)
    si70xx_buff                              0x20000038   Data           1  app_si70xx.o(.data)
    si70xx_data                              0x20000039   Data           2  app_si70xx.o(.data)
    dwSysTicks                               0x2000003c   Data           4  app_interrupt.o(.data)
    dwLedTicks                               0x20000040   Data           4  app_interrupt.o(.data)
    dwLedTime                                0x20000044   Data           4  app_interrupt.o(.data)
    deltms                                   0x20000048   Data           4  app_dev_ctrl.o(.data)
    task_monitor                             0x2000004c   Data           4  app_dev_ctrl.o(.data)
    reg                                      0x20000050   Data           2  app_dev_ctrl.o(.data)
    save_dev_flag                            0x20000052   Data           1  app_dev_ctrl.o(.data)
    low_temp_flag                            0x20000055   Data           1  app_dev_ctrl.o(.data)
    plc_alive_flag                           0x20000056   Data           1  app_dev_ctrl.o(.data)
    plc_alive_cntr_ms                        0x20000057   Data           1  app_dev_ctrl.o(.data)
    plc_communication                        0x20000058   Data           1  app_dev_ctrl.o(.data)
    tasks                                    0x20000060   Data          84  app_dev_ctrl.o(.data)
    auto_speed                               0x200000bc   Data           1  app_lcd.o(.data)
    flash_struct                             0x200000bd   Data           7  app_lcd.o(.data)
    lcd_buf                                  0x200000c4   Data           7  app_lcd.o(.data)
    lcd_buffer                               0x200000cb   Data           7  app_lcd.o(.data)
    plc_state_flag                           0x200000d2   Data           1  app_lcd.o(.data)
    temp                                     0x200000d4   Data           2  app_lcd.o(.data)
    humi                                     0x200000d6   Data           2  app_lcd.o(.data)
    lcd_temp_update                          0x200000d8   Data           1  app_lcd.o(.data)
    key_pressed                              0x200000da   Data           1  app_key.o(.data)
    key_value_temp                           0x200000f0   Data           3  app_key.o(.data)
    cap_key                                  0x200000f3   Data           2  app_key.o(.data)
    sctimerClock                             0x200000f8   Data           4  app_beep.o(.data)
    sctimerInfo                              0x200000fc   Data           8  app_beep.o(.data)
    pwmParam                                 0x20000104   Data           3  app_beep.o(.data)
    event                                    0x20000108   Data           4  app_beep.o(.data)
    plc_state                                0x2000010c   Data           8  smart_plc.o(.data)
    plc_state_slot                           0x20000114   Data          88  smart_plc.o(.data)
    g_tipString                              0x2000016c   Data          70  smart_plc.o(.data)
    g_txBuffer                               0x200001b2   Data           8  smart_plc.o(.data)
    g_rxBuffer                               0x200001ba   Data           8  smart_plc.o(.data)
    rxBufferEmpty                            0x200001c2   Data           1  smart_plc.o(.data)
    txBufferFull                             0x200001c3   Data           1  smart_plc.o(.data)
    txOnGoing                                0x200001c4   Data           1  smart_plc.o(.data)
    rxOnGoing                                0x200001c5   Data           1  smart_plc.o(.data)
    receive_String                           0x200001c6   Data          26  smart_plc.o(.data)
    send_String                              0x200001e0   Data          22  smart_plc.o(.data)
    receive_flag                             0x200001f6   Data           1  smart_plc.o(.data)
    pc_receive_index                         0x200001f7   Data           1  smart_plc.o(.data)
    pc_receive_flag                          0x200001f8   Data           1  smart_plc.o(.data)
    dev_soft_ver                             0x200001fc   Data           4  protocol_smart.o(.data)
    func_items                               0x20000200   Data         276  protocol_smart.o(.data)
    relay_data_bak                           0x20000324   Data           7  auto_report.o(.data)
    u16_relay_data                           0x2000032c   Data           4  auto_report.o(.data)
    u16_relay_data_bak                       0x20000330   Data           2  auto_report.o(.data)
    alarm_data                               0x20000334   Data           4  auto_report.o(.data)
    alarm_data_bak                           0x20000338   Data           1  auto_report.o(.data)
    s_message                                0x20000340   Data          32  hello_world_core0.o(.bss)
    s_dma_descriptor_table                   0x20000800   Data         320  fsl_dma.o(.bss)
    si7020_data                              0x20000950   Data          16  app_si70xx.o(.bss)
    g_frame_buffer                           0x20000960   Data        1024  app_dev_ctrl.o(.bss)
    mx25r                                    0x20000d60   Data          16  app_spiflash.o(.bss)
    tp_param                                 0x20000d70   Data          26  app_key.o(.bss)
    temperature_c                            0x20000d8c   Data          44  app_key.o(.bss)
    dev                                      0x20000db8   Data          88  app_key.o(.bss)
    bufferString                             0x20000e10   Data          50  smart_plc.o(.bss)
    uart_infor                               0x20000e44   Data          36  smart_plc.o(.bss)
    judge_data                               0x20000ea4   Data          40  auto_report.o(.bss)
    re_chn                                   0x20000ecc   Data         112  auto_report.o(.bss)
    relay_data                               0x20000f3c   Data          28  auto_report.o(.bss)
    sensor_data                              0x20000f58   Data          48  auto_report.o(.bss)
    chn_pool_mgr                             0x20000f88   Data        1028  alloter.o(.bss)



==============================================================================

Memory Map of the image

  Image Entry point : 0x000000e1

  Load Region LR_m_text (Base: 0x00000000, Size: 0x0000975c, Max: 0x00030000, ABSOLUTE, COMPRESSED[0x000095a8])

    Execution Region VECTOR_ROM (Base: 0x00000000, Size: 0x000000e0, Max: 0x000000e0, ABSOLUTE)

    Base Addr    Size         Type   Attr      Idx    E Section Name        Object

    0x00000000   0x000000e0   Data   RO          219    RESET               startup_lpc54114_cm4.o


    Execution Region VECTOR_RAM (Base: 0x00000000, Size: 0x00000000, Max: 0x00000000, ABSOLUTE)

    Base Addr    Size         Type   Attr      Idx    E Section Name        Object

    0x00000000   0x00000000   Zero   RW            1    VECTOR_RAM.bss      anon$$obj.o


    Execution Region ER_m_text (Base: 0x000000e0, Size: 0x00009340, Max: 0x0002ff20, ABSOLUTE)

    Base Addr    Size         Type   Attr      Idx    E Section Name        Object

    0x000000e0   0x00000000   Code   RO         4650  * .ARM.Collect$$$$00000000  mc_w.l(entry.o)
    0x000000e0   0x00000004   Code   RO         4683    .ARM.Collect$$$$00000003  mc_w.l(entry4.o)
    0x000000e4   0x00000004   Code   RO         4686    .ARM.Collect$$$$00000004  mc_w.l(entry5.o)
    0x000000e8   0x00000000   Code   RO         4688    .ARM.Collect$$$$00000008  mc_w.l(entry7b.o)
    0x000000e8   0x00000000   Code   RO         4690    .ARM.Collect$$$$0000000A  mc_w.l(entry8b.o)
    0x000000e8   0x00000008   Code   RO         4691    .ARM.Collect$$$$0000000B  mc_w.l(entry9a.o)
    0x000000f0   0x00000000   Code   RO         4693    .ARM.Collect$$$$0000000D  mc_w.l(entry10a.o)
    0x000000f0   0x00000000   Code   RO         4695    .ARM.Collect$$$$0000000F  mc_w.l(entry11a.o)
    0x000000f0   0x00000004   Code   RO         4684    .ARM.Collect$$$$00002714  mc_w.l(entry4.o)
    0x000000f4   0x000001b8   Code   RO          221    .text               startup_lpc54114_cm4.o
    0x000002ac   0x00000040   Code   RO         4657    .text               mc_w.l(memmovea.o)
    0x000002ec   0x0000000e   Code   RO         4661    .text               mc_w.l(strlen.o)
    0x000002fa   0x00000000   Code   RO         4703    .text               mc_w.l(iusefp.o)
    0x000002fa   0x00000002   Code   RO         4711    i.__scatterload_null  mc_w.l(handlers.o)
    0x000002fc   0x00000004   Code   RO          220    .ARM.__at_0x02FC    startup_lpc54114_cm4.o
    0x00000300   0x00000062   Code   RO         4653    .text               mc_w.l(uldiv.o)
    0x00000362   0x00000024   Code   RO         4659    .text               mc_w.l(memseta.o)
    0x00000386   0x0000001a   Code   RO         4663    .text               mc_w.l(memcmp.o)
    0x000003a0   0x0000003e   Code   RO         4677    .text               mf_w.l(dfixi.o)
    0x000003de   0x00000032   Code   RO         4679    .text               mf_w.l(dfixui.o)
    0x00000410   0x00000030   Code   RO         4681    .text               mf_w.l(cdrcmple.o)
    0x00000440   0x0000001e   Code   RO         4697    .text               mc_w.l(llshl.o)
    0x0000045e   0x00000020   Code   RO         4699    .text               mc_w.l(llushr.o)
    0x0000047e   0x00000002   PAD
    0x00000480   0x00000024   Code   RO         4706    .text               mc_w.l(init.o)
    0x000004a4   0x00000056   Code   RO         4716    .text               mc_w.l(__dczerorl2.o)
    0x000004fa   0x00000002   PAD
    0x000004fc   0x00000048   Code   RO         2365    i.BOARD_BootClockFROHF48M  clock_config.o
    0x00000544   0x00000064   Code   RO         2315    i.BOARD_InitDebugConsole  board.o
    0x000005a8   0x0000002c   Code   RO         2255    i.BOARD_InitPins_Core0  pin_mux.o
    0x000005d4   0x00000044   Code   RO          653    i.CLOCK_AttachClk   fsl_clock.o
    0x00000618   0x00000024   Code   RO            8    i.CLOCK_EnableClock  hello_world_core0.o
    0x0000063c   0x00000024   Code   RO         2257    i.CLOCK_EnableClock  pin_mux.o
    0x00000660   0x00000030   Code   RO          655    i.CLOCK_GetAsyncApbClkFreq  fsl_clock.o
    0x00000690   0x0000007c   Code   RO          656    i.CLOCK_GetCoreSysClkFreq  fsl_clock.o
    0x0000070c   0x00000004   Code   RO          657    i.CLOCK_GetExtClkFreq  fsl_clock.o
    0x00000710   0x00000040   Code   RO          658    i.CLOCK_GetFRGInputClock  fsl_clock.o
    0x00000750   0x0000005c   Code   RO          659    i.CLOCK_GetFlexCommClkFreq  fsl_clock.o
    0x000007ac   0x000001ac   Code   RO          660    i.CLOCK_GetFreq     fsl_clock.o
    0x00000958   0x0000001c   Code   RO          661    i.CLOCK_GetFro12MFreq  fsl_clock.o
    0x00000974   0x00000040   Code   RO          662    i.CLOCK_GetFroHfFreq  fsl_clock.o
    0x000009b4   0x0000000c   Code   RO          663    i.CLOCK_GetI2SMClkFreq  fsl_clock.o
    0x000009c0   0x00000006   Code   RO          664    i.CLOCK_GetOsc32KFreq  fsl_clock.o
    0x000009c6   0x00000002   PAD
    0x000009c8   0x0000000c   Code   RO          666    i.CLOCK_GetPllOutFreq  fsl_clock.o
    0x000009d4   0x00000040   Code   RO          671    i.CLOCK_GetWdtOscFreq  fsl_clock.o
    0x00000a14   0x00000028   Code   RO          672    i.CLOCK_SetClkDiv   fsl_clock.o
    0x00000a3c   0x00000018   Code   RO          673    i.CLOCK_SetFLASHAccessCycles  fsl_clock.o
    0x00000a54   0x00000054   Code   RO          674    i.CLOCK_SetFLASHAccessCyclesForFreq  fsl_clock.o
    0x00000aa8   0x0000009c   Code   RO          678    i.CLOCK_SetupFROClocking  fsl_clock.o
    0x00000b44   0x0000000a   Code   RO         1603    i.CTIMER0_DriverIRQHandler  fsl_ctimer.o
    0x00000b4e   0x0000000a   Code   RO         1604    i.CTIMER1_DriverIRQHandler  fsl_ctimer.o
    0x00000b58   0x0000000a   Code   RO         1605    i.CTIMER2_DriverIRQHandler  fsl_ctimer.o
    0x00000b62   0x0000000a   Code   RO         1606    i.CTIMER3_DriverIRQHandler  fsl_ctimer.o
    0x00000b6c   0x0000000a   Code   RO         1607    i.CTIMER4_DriverIRQHandler  fsl_ctimer.o
    0x00000b76   0x00000004   Code   RO         1608    i.CTIMER_ClearStatusFlags  fsl_ctimer.o
    0x00000b7a   0x00000002   PAD
    0x00000b7c   0x0000007c   Code   RO         1610    i.CTIMER_GenericIRQHandler  fsl_ctimer.o
    0x00000bf8   0x000000ac   Code   RO         1854    i.DMA0_DriverIRQHandler  fsl_dma.o
    0x00000ca4   0x000000a8   Code   RO         2580    i.DbgConsole_ConvertRadixNumToString  fsl_debug_console.o
    0x00000d4c   0x00000058   Code   RO         2583    i.DbgConsole_Init   fsl_debug_console.o
    0x00000da4   0x00000034   Code   RO         2584    i.DbgConsole_Printf  fsl_debug_console.o
    0x00000dd8   0x0000023a   Code   RO         2585    i.DbgConsole_PrintfFormattedData  fsl_debug_console.o
    0x00001012   0x00000028   Code   RO         2586    i.DbgConsole_PrintfPaddingCharacter  fsl_debug_console.o
    0x0000103a   0x00000002   PAD
    0x0000103c   0x00000024   Code   RO         2587    i.DbgConsole_Putchar  fsl_debug_console.o
    0x00001060   0x00000084   Code   RO          468    i.FLEXCOMM0_DriverIRQHandler  fsl_flexcomm.o
    0x000010e4   0x00000084   Code   RO          469    i.FLEXCOMM1_DriverIRQHandler  fsl_flexcomm.o
    0x00001168   0x00000084   Code   RO          470    i.FLEXCOMM2_DriverIRQHandler  fsl_flexcomm.o
    0x000011ec   0x00000084   Code   RO          471    i.FLEXCOMM3_DriverIRQHandler  fsl_flexcomm.o
    0x00001270   0x00000084   Code   RO          472    i.FLEXCOMM4_DriverIRQHandler  fsl_flexcomm.o
    0x000012f4   0x00000084   Code   RO          473    i.FLEXCOMM5_DriverIRQHandler  fsl_flexcomm.o
    0x00001378   0x00000034   Code   RO         3550    i.FLEXCOMM5_IRQHandler  smart_plc.o
    0x000013ac   0x00000084   Code   RO          474    i.FLEXCOMM6_DriverIRQHandler  fsl_flexcomm.o
    0x00001430   0x00000084   Code   RO          475    i.FLEXCOMM7_DriverIRQHandler  fsl_flexcomm.o
    0x000014b4   0x00000070   Code   RO          476    i.FLEXCOMM_GetInstance  fsl_flexcomm.o
    0x00001524   0x00000050   Code   RO          477    i.FLEXCOMM_Init     fsl_flexcomm.o
    0x00001574   0x0000003a   Code   RO          478    i.FLEXCOMM_PeripheralIsPresent  fsl_flexcomm.o
    0x000015ae   0x00000044   Code   RO          480    i.FLEXCOMM_SetPeriph  fsl_flexcomm.o
    0x000015f2   0x0000000a   Code   RO         3370    i.GPIO_ReadPinInput  app_key.o
    0x000015fc   0x0000000a   Code   RO          979    i.I2C_MasterClearStatusFlags  fsl_i2c.o
    0x00001606   0x00000022   Code   RO          981    i.I2C_MasterEnable  fsl_i2c.o
    0x00001628   0x00000014   Code   RO          982    i.I2C_MasterGetDefaultConfig  fsl_i2c.o
    0x0000163c   0x00000024   Code   RO          983    i.I2C_MasterInit    fsl_i2c.o
    0x00001660   0x00000088   Code   RO          986    i.I2C_MasterSetBaudRate  fsl_i2c.o
    0x000016e8   0x00000022   Code   RO          987    i.I2C_MasterStart   fsl_i2c.o
    0x0000170a   0x00000002   PAD
    0x0000170c   0x0000010c   Code   RO          995    i.I2C_MasterWriteBlocking  fsl_i2c.o
    0x00001818   0x00000022   Code   RO          996    i.I2C_PendingStatusWait  fsl_i2c.o
    0x0000183a   0x0000000e   Code   RO         1412    i.INPUTMUX_AttachSignal  fsl_inputmux.o
    0x00001848   0x0000002c   Code   RO         1413    i.INPUTMUX_Deinit   fsl_inputmux.o
    0x00001874   0x0000002c   Code   RO         1414    i.INPUTMUX_Init     fsl_inputmux.o
    0x000018a0   0x0000000c   Code   RO         2258    i.IOCON_PinMuxSet   pin_mux.o
    0x000018ac   0x0000000c   Code   RO         3054    i.IOCON_PinMuxSet   app_lcd.o
    0x000018b8   0x0000000c   Code   RO         3264    i.IOCON_PinMuxSet   app_spiflash.o
    0x000018c4   0x000000cc   Code   RO            9    i.MAILBOX_IRQHandler  hello_world_core0.o
    0x00001990   0x0000002c   Code   RO         2408    i.MAILBOX_Init      mcmgr_internal_core_api_lpc54114.o
    0x000019bc   0x00000010   Code   RO         2499    i.MCMGR_GetCurrentCore  mcmgr.o
    0x000019cc   0x0000002c   Code   RO         2502    i.MCMGR_Init        mcmgr.o
    0x000019f8   0x0000003c   Code   RO         2506    i.MCMGR_StartCore   mcmgr.o
    0x00001a34   0x00000018   Code   RO         1460    i.NVIC_ClearPendingIRQ  fsl_pint.o
    0x00001a4c   0x000000a0   Code   RO         1463    i.PINT_EnableCallback  fsl_pint.o
    0x00001aec   0x000000b4   Code   RO         1464    i.PINT_Init         fsl_pint.o
    0x00001ba0   0x00000014   Code   RO         1467    i.PINT_PatternMatchResetDetectLogic  fsl_pint.o
    0x00001bb4   0x00000008   Code   RO         1468    i.PINT_PinInterruptClrStatus  fsl_pint.o
    0x00001bbc   0x000000c0   Code   RO         1469    i.PINT_PinInterruptConfig  fsl_pint.o
    0x00001c7c   0x0000002c   Code   RO         1471    i.PIN_INT0_DriverIRQHandler  fsl_pint.o
    0x00001ca8   0x0000002c   Code   RO         1472    i.PIN_INT1_DriverIRQHandler  fsl_pint.o
    0x00001cd4   0x0000002c   Code   RO         1473    i.PIN_INT2_DriverIRQHandler  fsl_pint.o
    0x00001d00   0x0000002c   Code   RO         1474    i.PIN_INT3_DriverIRQHandler  fsl_pint.o
    0x00001d2c   0x0000002c   Code   RO         1475    i.PIN_INT4_DriverIRQHandler  fsl_pint.o
    0x00001d58   0x0000002c   Code   RO         1476    i.PIN_INT5_DriverIRQHandler  fsl_pint.o
    0x00001d84   0x0000002c   Code   RO         1477    i.PIN_INT6_DriverIRQHandler  fsl_pint.o
    0x00001db0   0x0000002c   Code   RO         1478    i.PIN_INT7_DriverIRQHandler  fsl_pint.o
    0x00001ddc   0x00000014   Code   RO          683    i.POWER_DisablePD   fsl_clock.o
    0x00001df0   0x00000014   Code   RO         2367    i.POWER_DisablePD   clock_config.o
    0x00001e04   0x0000012c   Code   RO         4633    i.POWER_SetVoltageForFreq  keil_lib_power.lib(fsl_power_lib.o)
    0x00001f30   0x00000014   Code   RO         4635    i.POWER_setVdLevel  keil_lib_power.lib(fsl_power_lib.o)
    0x00001f44   0x000000a0   Code   RO          938    i.RESET_ClearPeripheralReset  fsl_reset.o
    0x00001fe4   0x00000012   Code   RO          939    i.RESET_PeripheralReset  fsl_reset.o
    0x00001ff6   0x00000002   PAD
    0x00001ff8   0x000000a0   Code   RO          940    i.RESET_SetPeripheralReset  fsl_reset.o
    0x00002098   0x00000014   Code   RO         1730    i.SCT0_IRQHandler   fsl_sctimer.o
    0x000020ac   0x000001d8   Code   RO         1731    i.SCTIMER_CreateAndScheduleEvent  fsl_sctimer.o
    0x00002284   0x00000050   Code   RO         1733    i.SCTIMER_EventHandleIRQ  fsl_sctimer.o
    0x000022d4   0x0000006c   Code   RO         1735    i.SCTIMER_GetDefaultConfig  fsl_sctimer.o
    0x00002340   0x00000090   Code   RO         1736    i.SCTIMER_GetInstance  fsl_sctimer.o
    0x000023d0   0x00000148   Code   RO         1738    i.SCTIMER_Init      fsl_sctimer.o
    0x00002518   0x0000001e   Code   RO         1742    i.SCTIMER_SetupOutputClearAction  fsl_sctimer.o
    0x00002536   0x0000001a   Code   RO         1743    i.SCTIMER_SetupOutputSetAction  fsl_sctimer.o
    0x00002550   0x00000214   Code   RO         1745    i.SCTIMER_SetupPwm  fsl_sctimer.o
    0x00002764   0x0000001e   Code   RO         3496    i.SCTIMER_StartTimer  app_beep.o
    0x00002782   0x0000001e   Code   RO         1268    i.SPI_Enable        fsl_spi.o
    0x000027a0   0x0000006c   Code   RO         1272    i.SPI_GetInstance   fsl_spi.o
    0x0000280c   0x00000080   Code   RO         1273    i.SPI_MasterGetDefaultConfig  fsl_spi.o
    0x0000288c   0x000001bc   Code   RO         1274    i.SPI_MasterInit    fsl_spi.o
    0x00002a48   0x000000d0   Code   RO         1275    i.SPI_MasterSetBaud  fsl_spi.o
    0x00002b18   0x0000028c   Code   RO         1277    i.SPI_MasterTransferBlocking  fsl_spi.o
    0x00002da4   0x00000048   Code   RO         2752    i.SysTick_Handler   app_interrupt.o
    0x00002dec   0x00000028   Code   RO          232    i.SystemInit        system_lpc54114_cm4.o
    0x00002e14   0x0000002c   Code   RO         2260    i.USART5_InitPins   pin_mux.o
    0x00002e40   0x00000078   Code   RO          314    i.USART_GetDefaultConfig  fsl_usart.o
    0x00002eb8   0x00000158   Code   RO          316    i.USART_Init        fsl_usart.o
    0x00003010   0x00000118   Code   RO          317    i.USART_ReadBlocking  fsl_usart.o
    0x00003128   0x00000110   Code   RO          318    i.USART_SetBaudRate  fsl_usart.o
    0x00003238   0x000000b8   Code   RO          331    i.USART_WriteBlocking  fsl_usart.o
    0x000032f0   0x00000044   Code   RO          606    i.__aeabi_assert    fsl_common.o
    0x00003334   0x0000000e   Code   RO         4710    i.__scatterload_copy  mc_w.l(handlers.o)
    0x00003342   0x0000000e   Code   RO         4712    i.__scatterload_zeroinit  mc_w.l(handlers.o)
    0x00003350   0x0000000c   Code   RO         4084    i.actor_alarm_data_init  auto_report.o
    0x0000335c   0x00000078   Code   RO         2814    i.add_temp_handle   app_dev_ctrl.o
    0x000033d4   0x00000034   Code   RO         4490    i.alloc_a_slot      alloter.o
    0x00003408   0x00000010   Code   RO         2815    i.app_init          app_dev_ctrl.o
    0x00003418   0x00000078   Code   RO         4085    i.auto_report_init  auto_report.o
    0x00003490   0x00000024   Code   RO         4086    i.auto_report_sec_task  auto_report.o
    0x000034b4   0x0000005c   Code   RO         2816    i.auto_speed_display  app_dev_ctrl.o
    0x00003510   0x00000028   Code   RO         2817    i.backlight_ctrl    app_dev_ctrl.o
    0x00003538   0x00000030   Code   RO         3055    i.backlight_init    app_lcd.o
    0x00003568   0x0000000c   Code   RO         3056    i.backlight_off     app_lcd.o
    0x00003574   0x0000000c   Code   RO         3058    i.backligt_on       app_lcd.o
    0x00003580   0x00000032   Code   RO         4557    i.bcd2hex           utils.o
    0x000035b2   0x00000002   PAD
    0x000035b4   0x00000024   Code   RO         2818    i.beep_ctrl         app_dev_ctrl.o
    0x000035d8   0x0000009c   Code   RO         3497    i.beep_init         app_beep.o
    0x00003674   0x00000054   Code   RO         3498    i.beep_off          app_beep.o
    0x000036c8   0x00000054   Code   RO         3499    i.beep_on           app_beep.o
    0x0000371c   0x0000005c   Code   RO         3059    i.bu9796Init        app_lcd.o
    0x00003778   0x00000028   Code   RO         3061    i.bu9796WriteByte   app_lcd.o
    0x000037a0   0x00000042   Code   RO         3062    i.buffer2buff       app_lcd.o
    0x000037e2   0x00000002   PAD
    0x000037e4   0x00000090   Code   RO         4087    i.check_actor_data  auto_report.o
    0x00003874   0x00000058   Code   RO         4088    i.check_alarm_data  auto_report.o
    0x000038cc   0x00000070   Code   RO         2819    i.check_alive       app_dev_ctrl.o
    0x0000393c   0x00000048   Code   RO         2820    i.check_alive0      app_dev_ctrl.o
    0x00003984   0x00000088   Code   RO         4089    i.check_fixed_fre_data  auto_report.o
    0x00003a0c   0x000000ac   Code   RO         4090    i.check_fixed_len_data  auto_report.o
    0x00003ab8   0x00000040   Code   RO         3552    i.check_sole_encode  smart_plc.o
    0x00003af8   0x00000018   Code   RO         4558    i.checksum          utils.o
    0x00003b10   0x0000005c   Code   RO         3553    i.chg_state         smart_plc.o
    0x00003b6c   0x00000030   Code   RO         3837    i.chk_pwd           protocol_smart.o
    0x00003b9c   0x00000020   Code   RO         4091    i.clear_chn         auto_report.o
    0x00003bbc   0x00000010   Code   RO         4092    i.clear_equipment_gid_flag  auto_report.o
    0x00003bcc   0x00000010   Code   RO         3371    i.clear_iss         app_key.o
    0x00003bdc   0x00000034   Code   RO         4093    i.clear_subs        auto_report.o
    0x00003c10   0x00000014   Code   RO         3554    i.clear_uart        smart_plc.o
    0x00003c24   0x00000060   Code   RO         3064    i.clr_display_group_sig  app_lcd.o
    0x00003c84   0x00000060   Code   RO         3065    i.clr_display_signal  app_lcd.o
    0x00003ce4   0x00000058   Code   RO         3066    i.clr_num_display   app_lcd.o
    0x00003d3c   0x0000001a   Code   RO         3067    i.clr_position_num  app_lcd.o
    0x00003d56   0x0000003c   Code   RO         3838    i.code_body         protocol_smart.o
    0x00003d92   0x00000002   PAD
    0x00003d94   0x000000a0   Code   RO         3839    i.code_frame        protocol_smart.o
    0x00003e34   0x00000042   Code   RO         4415    i.code_intype_body  auto_report_app.o
    0x00003e76   0x0000002a   Code   RO         3840    i.code_local_frame  protocol_smart.o
    0x00003ea0   0x00000078   Code   RO         2821    i.dec_temp_handle   app_dev_ctrl.o
    0x00003f18   0x000000e4   Code   RO         2822    i.dev_init          app_dev_ctrl.o
    0x00003ffc   0x00000020   Code   RO         2823    i.dev_type_get      app_dev_ctrl.o
    0x0000401c   0x00000058   Code   RO         3070    i.display_fix_signal  app_lcd.o
    0x00004074   0x0000009c   Code   RO         3071    i.display_group_sig  app_lcd.o
    0x00004110   0x00000060   Code   RO         3072    i.display_signal    app_lcd.o
    0x00004170   0x00000120   Code   RO         3842    i.do_cmd            protocol_smart.o
    0x00004290   0x0000006c   Code   RO         3555    i.do_plc_register   smart_plc.o
    0x000042fc   0x00000034   Code   RO         3556    i.do_set_unlink     smart_plc.o
    0x00004330   0x0000001c   Code   RO         3557    i.empty_a_chn_slot  smart_plc.o
    0x0000434c   0x00000038   Code   RO         4094    i.find_sub_from_seq  auto_report.o
    0x00004384   0x00000030   Code   RO         4095    i.find_sub_from_type  auto_report.o
    0x000043b4   0x00000030   Code   RO         4096    i.finish_power_on_report  auto_report.o
    0x000043e4   0x0000003e   Code   RO         3265    i.flash_transfer_cb  app_spiflash.o
    0x00004422   0x0000002a   Code   RO         3843    i.form_error_body   protocol_smart.o
    0x0000444c   0x00000084   Code   RO         3558    i.frame_handle      smart_plc.o
    0x000044d0   0x00000018   Code   RO         4491    i.free_a_slot       alloter.o
    0x000044e8   0x00000020   Code   RO         4097    i.get_1byte_bit1_number  auto_report.o
    0x00004508   0x00000024   Code   RO         3844    i.get_air_coner_switch  protocol_smart.o
    0x0000452c   0x00000048   Code   RO         3845    i.get_app_comm_ver  protocol_smart.o
    0x00004574   0x0000001c   Code   RO         4098    i.get_chn           auto_report.o
    0x00004590   0x000000d4   Code   RO         4492    i.get_chn_bytes     alloter.o
    0x00004664   0x00000008   Code   RO           11    i.get_core1_image_size  hello_world_core0.o
    0x0000466c   0x000000a0   Code   RO         3846    i.get_dbg_info      protocol_smart.o
    0x0000470c   0x00000018   Code   RO         3847    i.get_dev_key       protocol_smart.o
    0x00004724   0x0000001c   Code   RO         3848    i.get_dev_sn        protocol_smart.o
    0x00004740   0x00000038   Code   RO         3849    i.get_dev_soft_ver  protocol_smart.o
    0x00004778   0x00000018   Code   RO         3850    i.get_device_type   protocol_smart.o
    0x00004790   0x0000003c   Code   RO         4099    i.get_different_delay_time  auto_report.o
    0x000047cc   0x00000012   Code   RO         3559    i.get_id            smart_plc.o
    0x000047de   0x0000001c   Code   RO         4493    i.get_last_bit_seqno  alloter.o
    0x000047fa   0x00000018   Code   RO         4560    i.get_le_val        utils.o
    0x00004812   0x00000002   PAD
    0x00004814   0x00000024   Code   RO         3851    i.get_low_temp_protect  protocol_smart.o
    0x00004838   0x00000044   Code   RO         4101    i.get_min_freq      auto_report.o
    0x0000487c   0x00000024   Code   RO         3852    i.get_mode_ctrl     protocol_smart.o
    0x000048a0   0x00000038   Code   RO         3853    i.get_option        protocol_smart.o
    0x000048d8   0x00000024   Code   RO         3854    i.get_panel_lock    protocol_smart.o
    0x000048fc   0x00000028   Code   RO         3560    i.get_plc_state     smart_plc.o
    0x00004924   0x00000024   Code   RO         3855    i.get_power_on_delay_time  protocol_smart.o
    0x00004948   0x000000c0   Code   RO         3561    i.get_reg           smart_plc.o
    0x00004a08   0x00000360   Code   RO         4416    i.get_report_data_callback  auto_report_app.o
    0x00004d68   0x00000054   Code   RO         3856    i.get_report_freq   protocol_smart.o
    0x00004dbc   0x00000054   Code   RO         3857    i.get_report_step   protocol_smart.o
    0x00004e10   0x00000064   Code   RO         3858    i.get_report_switch  protocol_smart.o
    0x00004e74   0x0000002c   Code   RO         4102    i.get_sensor_from_type  auto_report.o
    0x00004ea0   0x00000016   Code   RO         4417    i.get_sensor_type   auto_report_app.o
    0x00004eb6   0x00000002   PAD
    0x00004eb8   0x0000008c   Code   RO         3859    i.get_sensor_value  protocol_smart.o
    0x00004f44   0x00000060   Code   RO         3860    i.get_smart_frame   protocol_smart.o
    0x00004fa4   0x00000024   Code   RO         3861    i.get_speed_ctrl_mode  protocol_smart.o
    0x00004fc8   0x00000070   Code   RO         3862    i.get_temp_range    protocol_smart.o
    0x00005038   0x00000024   Code   RO         3863    i.get_temp_set      protocol_smart.o
    0x0000505c   0x0000002c   Code   RO         3864    i.get_temp_set_E002  protocol_smart.o
    0x00005088   0x0000003a   Code   RO         4103    i.get_time_from_trycnt  auto_report.o
    0x000050c2   0x00000002   PAD
    0x000050c4   0x00000050   Code   RO         3865    i.get_win_speed_ctrl  protocol_smart.o
    0x00005114   0x0000003e   Code   RO         4561    i.hex2bcd           utils.o
    0x00005152   0x00000002   PAD
    0x00005154   0x00000024   Code   RO         4418    i.init_alarm_data   auto_report_app.o
    0x00005178   0x00000014   Code   RO         4494    i.init_chn_pool_mgr  alloter.o
    0x0000518c   0x000000b8   Code   RO         4419    i.init_relay_data   auto_report_app.o
    0x00005244   0x000000a4   Code   RO         4420    i.init_sensor_data  auto_report_app.o
    0x000052e8   0x0000002c   Code   RO         3562    i.init_uart_infor   smart_plc.o
    0x00005314   0x00000028   Code   RO         4562    i.is_all_bcd        utils.o
    0x0000533c   0x0000001a   Code   RO         4563    i.is_all_xx         utils.o
    0x00005356   0x00000002   PAD
    0x00005358   0x00000188   Code   RO         3563    i.is_gid_equal      smart_plc.o
    0x000054e0   0x00000028   Code   RO         4105    i.judge_process     auto_report.o
    0x00005508   0x0000007c   Code   RO         3372    i.key_init          app_key.o
    0x00005584   0x000001b8   Code   RO         3373    i.key_scan          app_key.o
    0x0000573c   0x00000034   Code   RO         3075    i.lcdReload         app_lcd.o
    0x00005770   0x000000a4   Code   RO         3564    i.local_ack_opt     smart_plc.o
    0x00005814   0x00000070   Code   RO         3565    i.local_frame_opt   smart_plc.o
    0x00005884   0x000001d0   Code   RO           12    i.main              hello_world_core0.o
    0x00005a54   0x00000008   Code   RO         2409    i.mcmgr_get_core_property_lpc54114  mcmgr_internal_core_api_lpc54114.o
    0x00005a5c   0x00000004   Code   RO         2410    i.mcmgr_get_current_core_lpc54114  mcmgr_internal_core_api_lpc54114.o
    0x00005a60   0x0000006c   Code   RO         2411    i.mcmgr_get_startup_data_lpc54114  mcmgr_internal_core_api_lpc54114.o
    0x00005acc   0x0000002c   Code   RO         2412    i.mcmgr_init_lpc54114  mcmgr_internal_core_api_lpc54114.o
    0x00005af8   0x00000006   Code   RO         2413    i.mcmgr_load_app_lpc54114  mcmgr_internal_core_api_lpc54114.o
    0x00005afe   0x00000002   PAD
    0x00005b00   0x0000001c   Code   RO         2414    i.mcmgr_signal_ready_lpc54114  mcmgr_internal_core_api_lpc54114.o
    0x00005b1c   0x00000118   Code   RO         2415    i.mcmgr_start_core_lpc54114  mcmgr_internal_core_api_lpc54114.o
    0x00005c34   0x0000002c   Code   RO         2416    i.mcmgr_stop_core_lpc54114  mcmgr_internal_core_api_lpc54114.o
    0x00005c60   0x00000040   Code   RO         2826    i.mode_handle       app_dev_ctrl.o
    0x00005ca0   0x00000052   Code   RO         3076    i.mode_sig_display  app_lcd.o
    0x00005cf2   0x00000030   Code   RO         3267    i.mx25r_cmd_rdid    app_spiflash.o
    0x00005d22   0x00000030   Code   RO         3268    i.mx25r_cmd_rdsr    app_spiflash.o
    0x00005d52   0x00000050   Code   RO         3269    i.mx25r_cmd_read    app_spiflash.o
    0x00005da2   0x00000062   Code   RO         3270    i.mx25r_cmd_sector_erase  app_spiflash.o
    0x00005e04   0x0000001e   Code   RO         3271    i.mx25r_cmd_wrdi    app_spiflash.o
    0x00005e22   0x0000001e   Code   RO         3272    i.mx25r_cmd_wren    app_spiflash.o
    0x00005e40   0x00000096   Code   RO         3273    i.mx25r_cmd_write   app_spiflash.o
    0x00005ed6   0x0000000a   Code   RO         3274    i.mx25r_init        app_spiflash.o
    0x00005ee0   0x00000074   Code   RO         3078    i.num_display_ctrl  app_lcd.o
    0x00005f54   0x0000006c   Code   RO         2827    i.on_off_handle     app_dev_ctrl.o
    0x00005fc0   0x00000090   Code   RO         2828    i.on_uart_rxchar    app_dev_ctrl.o
    0x00006050   0x0000001c   Code   RO         4107    i.peek_chn          auto_report.o
    0x0000606c   0x00000058   Code   RO         4495    i.peek_chn_bytes    alloter.o
    0x000060c4   0x00000100   Code   RO         3374    i.pint_intr_callback  app_key.o
    0x000061c4   0x00000010   Code   RO         3566    i.plc_init          smart_plc.o
    0x000061d4   0x00000028   Code   RO         3567    i.plc_machine_opt   smart_plc.o
    0x000061fc   0x00000038   Code   RO         3568    i.plc_reset_init    smart_plc.o
    0x00006234   0x0000000c   Code   RO         3569    i.plc_reset_off     smart_plc.o
    0x00006240   0x0000000c   Code   RO         3570    i.plc_reset_on      smart_plc.o
    0x0000624c   0x00000044   Code   RO         4108    i.poweron_time_count  auto_report.o
    0x00006290   0x0000001c   Code   RO         4109    i.put_chn           auto_report.o
    0x000062ac   0x000000c4   Code   RO         4497    i.put_chn_bytes     alloter.o
    0x00006370   0x00000014   Code   RO         4565    i.put_le_val        utils.o
    0x00006384   0x000000e4   Code   RO         3572    i.rd_gw_aid         smart_plc.o
    0x00006468   0x000000ec   Code   RO         3573    i.rd_plc_eid        smart_plc.o
    0x00006554   0x000000f0   Code   RO         3574    i.rd_plc_sid        smart_plc.o
    0x00006644   0x0000011c   Code   RO           13    i.read_si7020_data  hello_world_core0.o
    0x00006760   0x00000080   Code   RO         3441    i.realy_init        app_realy.o
    0x000067e0   0x00000028   Code   RO         3442    i.realy_off         app_realy.o
    0x00006808   0x00000028   Code   RO         3443    i.realy_on          app_realy.o
    0x00006830   0x0000002c   Code   RO         3444    i.realy_toggle      app_realy.o
    0x0000685c   0x00000044   Code   RO         4110    i.register_report   auto_report.o
    0x000068a0   0x0000003c   Code   RO         4111    i.register_time_count  auto_report.o
    0x000068dc   0x000000d0   Code   RO         3445    i.relay_ctrl        app_realy.o
    0x000069ac   0x00000014   Code   RO         4112    i.reload_freq_infor  auto_report.o
    0x000069c0   0x00000092   Code   RO         3575    i.remote_frame_opt  smart_plc.o
    0x00006a52   0x00000002   PAD
    0x00006a54   0x0000002c   Code   RO         4113    i.report_alloter_init  auto_report.o
    0x00006a80   0x000000b0   Code   RO         4421    i.report_finish_refresh_infor  auto_report_app.o
    0x00006b30   0x000000b4   Code   RO         4114    i.report_frame_ack  auto_report.o
    0x00006be4   0x00000114   Code   RO         4115    i.report_time_hook  auto_report.o
    0x00006cf8   0x00000094   Code   RO         3576    i.reset_plc         smart_plc.o
    0x00006d8c   0x00000088   Code   RO         4116    i.save_subs_infor   auto_report.o
    0x00006e14   0x00000080   Code   RO         4118    i.send_actor_count  auto_report.o
    0x00006e94   0x0000001c   Code   RO         4119    i.send_alarm_count  auto_report.o
    0x00006eb0   0x0000003c   Code   RO         4120    i.send_fixed_fre_count  auto_report.o
    0x00006eec   0x0000003c   Code   RO         4121    i.send_fixed_len_count  auto_report.o
    0x00006f28   0x00000044   Code   RO         3577    i.send_local_frame  smart_plc.o
    0x00006f6c   0x00000014   Code   RO         4122    i.send_max_retry    auto_report.o
    0x00006f80   0x0000003c   Code   RO         4123    i.send_over         auto_report.o
    0x00006fbc   0x00000064   Code   RO         4124    i.send_power_or_register_report  auto_report.o
    0x00007020   0x00000042   Code   RO         4125    i.send_report_frame  auto_report.o
    0x00007062   0x00000002   PAD
    0x00007064   0x00000060   Code   RO         4126    i.send_retry        auto_report.o
    0x000070c4   0x00000140   Code   RO         4127    i.send_to_both_subs_gateway  auto_report.o
    0x00007204   0x00000080   Code   RO         4128    i.send_to_gateway   auto_report.o
    0x00007284   0x00000020   Code   RO         4129    i.send_to_only_gateway  auto_report.o
    0x000072a4   0x000000ac   Code   RO         4130    i.send_to_only_subs  auto_report.o
    0x00007350   0x00000204   Code   RO         4131    i.sensor_need_report_or_not  auto_report.o
    0x00007554   0x00000048   Code   RO         3578    i.set_aid           smart_plc.o
    0x0000759c   0x00000044   Code   RO         3866    i.set_air_coner_switch  protocol_smart.o
    0x000075e0   0x000000c4   Code   RO         3867    i.set_dbg_info      protocol_smart.o
    0x000076a4   0x0000009c   Code   RO         3579    i.set_group_parameter  smart_plc.o
    0x00007740   0x00000044   Code   RO         3868    i.set_low_temp_protect  protocol_smart.o
    0x00007784   0x00000044   Code   RO         3869    i.set_mode_ctrl     protocol_smart.o
    0x000077c8   0x00000044   Code   RO         3870    i.set_panel_lock    protocol_smart.o
    0x0000780c   0x00000088   Code   RO         3580    i.set_panid         smart_plc.o
    0x00007894   0x00000044   Code   RO         3871    i.set_power_on_delay_time  protocol_smart.o
    0x000078d8   0x00000044   Code   RO         3581    i.set_register      smart_plc.o
    0x0000791c   0x00000060   Code   RO         3872    i.set_report_freq   protocol_smart.o
    0x0000797c   0x000000a8   Code   RO         3873    i.set_report_step   protocol_smart.o
    0x00007a24   0x00000070   Code   RO         3874    i.set_report_switch  protocol_smart.o
    0x00007a94   0x0000003c   Code   RO         3582    i.set_ret_frame     smart_plc.o
    0x00007ad0   0x00000044   Code   RO         3875    i.set_speed_ctrl_mode  protocol_smart.o
    0x00007b14   0x00000110   Code   RO         3876    i.set_temp_range    protocol_smart.o
    0x00007c24   0x00000068   Code   RO         3877    i.set_temp_set      protocol_smart.o
    0x00007c8c   0x00000070   Code   RO         3878    i.set_temp_set_E002  protocol_smart.o
    0x00007cfc   0x00000044   Code   RO         3583    i.set_unlink        smart_plc.o
    0x00007d40   0x00000068   Code   RO         3879    i.set_win_speed_ctrl  protocol_smart.o
    0x00007da8   0x00000080   Code   RO         2831    i.speed_realy_ctrl  app_dev_ctrl.o
    0x00007e28   0x0000006e   Code   RO         3080    i.speed_sig_display  app_lcd.o
    0x00007e96   0x00000002   PAD
    0x00007e98   0x000000c8   Code   RO         3275    i.spiflash_init     app_spiflash.o
    0x00007f60   0x00000024   Code   RO         4132    i.start_fixed_report_save  auto_report.o
    0x00007f84   0x00000084   Code   RO         4133    i.start_new_report_or_not  auto_report.o
    0x00008008   0x0000007c   Code   RO         4134    i.start_report      auto_report.o
    0x00008084   0x0000000c   Code   RO         2832    i.state_machine     app_dev_ctrl.o
    0x00008090   0x00000014   Code   RO         4135    i.stop_fixed_report_save  auto_report.o
    0x000080a4   0x0000002c   Code   RO         4136    i.stop_fixed_reporting  auto_report.o
    0x000080d0   0x0000008c   Code   RO         4137    i.stop_report       auto_report.o
    0x0000815c   0x0000001c   Code   RO         4138    i.stop_report_para  auto_report.o
    0x00008178   0x00000034   Code   RO         4139    i.sub_report_or_not  auto_report.o
    0x000081ac   0x000000d4   Code   RO         2833    i.sys_tick          app_dev_ctrl.o
    0x00008280   0x00000030   Code   RO         2834    i.system_init       app_dev_ctrl.o
    0x000082b0   0x0000004c   Code   RO         2835    i.task_100ms        app_dev_ctrl.o
    0x000082fc   0x00000020   Code   RO         2836    i.task_20ms         app_dev_ctrl.o
    0x0000831c   0x0000005c   Code   RO         2837    i.task_handle       app_dev_ctrl.o
    0x00008378   0x00000002   Code   RO         2838    i.task_key          app_dev_ctrl.o
    0x0000837a   0x00000002   PAD
    0x0000837c   0x00000060   Code   RO         2839    i.task_sec          app_dev_ctrl.o
    0x000083dc   0x0000012c   Code   RO         2840    i.temp_auto_ctrl    app_dev_ctrl.o
    0x00008508   0x00000304   Code   RO         2841    i.temp_ctrl_realy   app_dev_ctrl.o
    0x0000880c   0x00000198   Code   RO         3081    i.temp_display_flash  app_lcd.o
    0x000089a4   0x000000d0   Code   RO         2842    i.temp_param_init   app_dev_ctrl.o
    0x00008a74   0x00000074   Code   RO         3584    i.uart5_config      smart_plc.o
    0x00008ae8   0x00000018   Code   RO         3585    i.uart_peek         smart_plc.o
    0x00008b00   0x00000018   Code   RO         3586    i.uart_pop_tx       smart_plc.o
    0x00008b18   0x00000018   Code   RO         3587    i.uart_push_rx      smart_plc.o
    0x00008b30   0x00000030   Code   RO         3588    i.uart_rx_hook      smart_plc.o
    0x00008b60   0x00000048   Code   RO         3589    i.uart_tick_hook    smart_plc.o
    0x00008ba8   0x00000084   Code   RO         2843    i.uart_write        app_dev_ctrl.o
    0x00008c2c   0x00000044   Code   RO         4422    i.uart_write_report  auto_report_app.o
    0x00008c70   0x00000238   Code   RO         3082    i.update_lcd_data   app_lcd.o
    0x00008ea8   0x00000054   Code   RO         3590    i.wait_sec          smart_plc.o
    0x00008efc   0x00000050   Code   RO         2844    i.win_speed_ctrl_realy  app_dev_ctrl.o
    0x00008f4c   0x0000006c   Code   RO         2845    i.win_speed_handle  app_dev_ctrl.o
    0x00008fb8   0x00000048   Code   RO         3591    i.wr_plc_aid        smart_plc.o
    0x00009000   0x000000a8   Code   RO         3592    i.wr_plc_panid      smart_plc.o
    0x000090a8   0x00000030   Code   RO         2846    i.write_to_flash    app_dev_ctrl.o
    0x000090d8   0x00000032   Code   RO         4566    i.xbcd2hex          utils.o
    0x0000910a   0x00000002   PAD
    0x0000910c   0x00000038   Data   RO          482    .constdata          fsl_flexcomm.o
    0x00009144   0x00000024   Data   RO          695    .constdata          fsl_clock.o
    0x00009168   0x00000028   Data   RO         1288    .constdata          fsl_spi.o
    0x00009190   0x00000008   Data   RO         1480    .constdata          fsl_pint.o
    0x00009198   0x00000039   Data   RO         1621    .constdata          fsl_ctimer.o
    0x000091d1   0x00000003   PAD
    0x000091d4   0x0000000c   Data   RO         1748    .constdata          fsl_sctimer.o
    0x000091e0   0x00000070   Data   RO         2417    .constdata          mcmgr_internal_core_api_lpc54114.o
    0x00009250   0x00000022   Data   RO         2848    .constdata          app_dev_ctrl.o
    0x00009272   0x00000002   PAD
    0x00009274   0x000000c1   Data   RO         3084    .constdata          app_lcd.o
    0x00009335   0x00000008   Data   RO         3376    .constdata          app_key.o
    0x0000933d   0x00000010   Data   RO         3446    .constdata          app_realy.o
    0x0000934d   0x00000003   PAD
    0x00009350   0x0000005a   Data   RO         1289    .conststring        fsl_spi.o
    0x000093aa   0x00000002   PAD
    0x000093ac   0x00000012   Data   RO         2418    .conststring        mcmgr_internal_core_api_lpc54114.o
    0x000093be   0x00000002   PAD
    0x000093c0   0x0000001d   Data   RO         2849    .conststring        app_dev_ctrl.o
    0x000093dd   0x00000003   PAD
    0x000093e0   0x00000020   Data   RO         3880    .conststring        protocol_smart.o
    0x00009400   0x00000020   Data   RO         4708    Region$$Table       anon$$obj.o


    Execution Region ARM_LIB_STACK (Base: 0x04007c00, Size: 0x00000400, Max: 0x00000400, ABSOLUTE)

    Base Addr    Size         Type   Attr      Idx    E Section Name        Object

    0x04007c00   0x00000400   Zero   RW            3    ARM_LIB_STACK.bss   anon$$obj.o


    Execution Region RW_m_data (Base: 0x20000000, Size: 0x0000138c, Max: 0x0000e800, ABSOLUTE, COMPRESSED[0x00000188])

    Base Addr    Size         Type   Attr      Idx    E Section Name        Object

    0x20000000   0x0000000d   Data   RW           15    .data               hello_world_core0.o
    0x2000000d   0x00000003   PAD
    0x20000010   0x00000004   Data   RW          240    .data               system_lpc54114_cm4.o
    0x20000014   0x00000008   Data   RW          696    .data               fsl_clock.o
    0x2000001c   0x00000005   Data   RW         1622    .data               fsl_ctimer.o
    0x20000021   0x00000003   PAD
    0x20000024   0x00000010   Data   RW         1749    .data               fsl_sctimer.o
    0x20000034   0x00000007   Data   RW         2694    .data               app_si70xx.o
    0x2000003b   0x00000001   PAD
    0x2000003c   0x0000000c   Data   RW         2753    .data               app_interrupt.o
    0x20000048   0x00000074   Data   RW         2850    .data               app_dev_ctrl.o
    0x200000bc   0x0000001e   Data   RW         3085    .data               app_lcd.o
    0x200000da   0x0000001b   Data   RW         3377    .data               app_key.o
    0x200000f5   0x00000003   PAD
    0x200000f8   0x00000014   Data   RW         3500    .data               app_beep.o
    0x2000010c   0x000000ee   Data   RW         3594    .data               smart_plc.o
    0x200001fa   0x00000002   PAD
    0x200001fc   0x00000119   Data   RW         3881    .data               protocol_smart.o
    0x20000315   0x00000003   PAD
    0x20000318   0x00000023   Data   RW         4141    .data               auto_report.o
    0x2000033b   0x00000005   PAD
    0x20000340   0x00000020   Zero   RW           14    .bss                hello_world_core0.o
    0x20000360   0x00000040   Zero   RW          481    .bss                fsl_flexcomm.o
    0x200003a0   0x00000010   Zero   RW         1287    .bss                fsl_spi.o
    0x200003b0   0x00000020   Zero   RW         1479    .bss                fsl_pint.o
    0x200003d0   0x00000014   Zero   RW         1620    .bss                fsl_ctimer.o
    0x200003e4   0x00000028   Zero   RW         1747    .bss                fsl_sctimer.o
    0x2000040c   0x000001f4   PAD
    0x20000600   0x00000340   Zero   RW         1872    .bss                fsl_dma.o
    0x20000940   0x00000010   Zero   RW         2593    .bss                fsl_debug_console.o
    0x20000950   0x00000010   Zero   RW         2693    .bss                app_si70xx.o
    0x20000960   0x00000400   Zero   RW         2847    .bss                app_dev_ctrl.o
    0x20000d60   0x00000010   Zero   RW         3276    .bss                app_spiflash.o
    0x20000d70   0x000000a0   Zero   RW         3375    .bss                app_key.o
    0x20000e10   0x00000058   Zero   RW         3593    .bss                smart_plc.o
    0x20000e68   0x00000120   Zero   RW         4140    .bss                auto_report.o
    0x20000f88   0x00000404   Zero   RW         4498    .bss                alloter.o


    Execution Region ARM_LIB_HEAP (Base: 0x2000138c, Size: 0x00000400, Max: 0x00000400, ABSOLUTE)

    Base Addr    Size         Type   Attr      Idx    E Section Name        Object

    0x2000138c   0x00000400   Zero   RW            2    ARM_LIB_HEAP.bss    anon$$obj.o


    Execution Region RPMSG_SH_MEM (Base: 0x20026800, Size: 0x00000000, Max: 0x00001800, ABSOLUTE, UNINIT)

    **** No section assigned to this execution region ****



  Load Region LR_CORE1_IMAGE (Base: 0x00030000, Size: 0x00001da8, Max: 0xffffffff, ABSOLUTE)

    Execution Region CORE1_REGION (Base: 0x00030000, Size: 0x00001da8, Max: 0x00010000, ABSOLUTE)

    Base Addr    Size         Type   Attr      Idx    E Section Name        Object

    0x00030000   0x00001da8   Data   RO            4    M0CODE              incbin.o


==============================================================================

Image component sizes


      Code (inc. data)   RO Data    RW Data    ZI Data      Debug   Object Name

       620         28          0          0       1028       6349   alloter.o
       354         74          0         20          0      19383   app_beep.o
      3530        450         63        116       1024      29429   app_dev_ctrl.o
        72         16          0         12          0       1669   app_interrupt.o
       846        196          8         27        160      10606   app_key.o
      2264        176        193         30          0      25442   app_lcd.o
       460         72         16          0          0       4858   app_realy.o
         0          0          0          7         16       2861   app_si70xx.o
       768         24          0          0         16      15169   app_spiflash.o
      4560        932          0         35        288      41140   auto_report.o
      1580        146          0          0          0       9033   auto_report_app.o
       100         50          0          0          0     253837   board.o
        92         22          0          0          0       2670   clock_config.o
      1338        156         36          8          0      27605   fsl_clock.o
        68         44          0          0          0        813   fsl_common.o
       178         14         57          5         20       8874   fsl_ctimer.o
       954         28          0          0         16      13219   fsl_debug_console.o
       172          4          0          0        832       5137   fsl_dma.o
      1374        854         56          0         64      23888   fsl_flexcomm.o
       572         72          0          0          0      18394   fsl_i2c.o
       102         16          0          0          0      21106   fsl_inputmux.o
       936        254          8          0         32      45579   fsl_pint.o
       338        160          0          0          0       3164   fsl_reset.o
      1740        410         12         16         40      14961   fsl_sctimer.o
      1570        576        130          0         16      14777   fsl_spi.o
      1200        496          0          0          0      14757   fsl_usart.o
       996        400          0         13         32     315834   hello_world_core0.o
         0          0       7592          0          0          0   incbin.o
       120         16          0          0          0       2430   mcmgr.o
       566        170        130          0          0      23284   mcmgr_internal_core_api_lpc54114.o
       136         18          0          0          0       5209   pin_mux.o
      3624        266         32        281          0      38137   protocol_smart.o
      3904       1036          0        238         88      68549   smart_plc.o
       444        198        224          0          0       3304   startup_lpc54114_cm4.o
        40         12          0          4          0     251931   system_lpc54114_cm4.o
       296          0          0          0          0       6245   utils.o

    ----------------------------------------------------------------------
     35952       7386       8604        828       6224    1349643   Object Totals
         0          0         32          0       2048          0   (incl. Generated)
        38          0         15         16        504          0   (incl. Padding)

    ----------------------------------------------------------------------

      Code (inc. data)   RO Data    RW Data    ZI Data      Debug   Library Member Name

       320         46          0          0          0        248   fsl_power_lib.o
        86          0          0          0          0          0   __dczerorl2.o
         0          0          0          0          0          0   entry.o
         0          0          0          0          0          0   entry10a.o
         0          0          0          0          0          0   entry11a.o
         8          4          0          0          0          0   entry4.o
         4          0          0          0          0          0   entry5.o
         0          0          0          0          0          0   entry7b.o
         0          0          0          0          0          0   entry8b.o
         8          4          0          0          0          0   entry9a.o
        30          0          0          0          0          0   handlers.o
        36          8          0          0          0         68   init.o
         0          0          0          0          0          0   iusefp.o
        30          0          0          0          0         68   llshl.o
        32          0          0          0          0         68   llushr.o
        26          0          0          0          0         80   memcmp.o
        64          0          0          0          0         76   memmovea.o
        36          0          0          0          0        108   memseta.o
        14          0          0          0          0         68   strlen.o
        98          0          0          0          0         92   uldiv.o
        48          0          0          0          0         68   cdrcmple.o
        62          0          0          0          0         80   dfixi.o
        50          0          0          0          0         76   dfixui.o

    ----------------------------------------------------------------------
       956         62          0          0          0       1100   Library Totals
         4          0          0          0          0          0   (incl. Padding)

    ----------------------------------------------------------------------

      Code (inc. data)   RO Data    RW Data    ZI Data      Debug   Library Name

       320         46          0          0          0        248   keil_lib_power.lib
       472         16          0          0          0        628   mc_w.l
       160          0          0          0          0        224   mf_w.l

    ----------------------------------------------------------------------
       956         62          0          0          0       1100   Library Totals

    ----------------------------------------------------------------------

==============================================================================


      Code (inc. data)   RO Data    RW Data    ZI Data      Debug   

     36908       7448       8604        828       6224    1315863   Grand Totals
     36908       7448       8604        392       6224    1315863   ELF Image Totals (compressed)
     36908       7448       8604        392          0          0   ROM Totals

==============================================================================

    Total RO  Size (Code + RO Data)                45512 (  44.45kB)
    Total RW  Size (RW Data + ZI Data)              7052 (   6.89kB)
    Total ROM Size (Code + RO Data + RW Data)      45904 (  44.83kB)

==============================================================================

